ARM GAS  /tmp/ccWaMcpH.s 			page 1


   1              		.cpu cortex-m4
   2              		.arch armv7e-m
   3              		.fpu fpv4-sp-d16
   4              		.eabi_attribute 27, 1
   5              		.eabi_attribute 28, 1
   6              		.eabi_attribute 20, 1
   7              		.eabi_attribute 21, 1
   8              		.eabi_attribute 23, 3
   9              		.eabi_attribute 24, 1
  10              		.eabi_attribute 25, 1
  11              		.eabi_attribute 26, 1
  12              		.eabi_attribute 30, 1
  13              		.eabi_attribute 34, 1
  14              		.eabi_attribute 18, 4
  15              		.file	"mpu6050.c"
  16              		.text
  17              	.Ltext0:
  18              		.cfi_sections	.debug_frame
  19              		.file 1 "mpu6050/mpu6050.c"
  20              		.section	.text.MPU6050_Init,"ax",%progbits
  21              		.align	1
  22              		.global	MPU6050_Init
  23              		.syntax unified
  24              		.thumb
  25              		.thumb_func
  27              	MPU6050_Init:
  28              	.LVL0:
  29              	.LFB134:
   1:mpu6050/mpu6050.c **** /*
   2:mpu6050/mpu6050.c ****  * mpu6050.c
   3:mpu6050/mpu6050.c ****  *
   4:mpu6050/mpu6050.c ****  *  Created on: Nov 13, 2019
   5:mpu6050/mpu6050.c ****  *      Author: Bulanov Konstantin
   6:mpu6050/mpu6050.c ****  *
   7:mpu6050/mpu6050.c ****  *  Contact information
   8:mpu6050/mpu6050.c ****  *  -------------------
   9:mpu6050/mpu6050.c ****  *
  10:mpu6050/mpu6050.c ****  * e-mail   :  leech001@gmail.com
  11:mpu6050/mpu6050.c ****  */
  12:mpu6050/mpu6050.c **** 
  13:mpu6050/mpu6050.c **** /*
  14:mpu6050/mpu6050.c ****  * |---------------------------------------------------------------------------------
  15:mpu6050/mpu6050.c ****  * | Copyright (C) Bulanov Konstantin,2021
  16:mpu6050/mpu6050.c ****  * |
  17:mpu6050/mpu6050.c ****  * | This program is free software: you can redistribute it and/or modify
  18:mpu6050/mpu6050.c ****  * | it under the terms of the GNU General Public License as published by
  19:mpu6050/mpu6050.c ****  * | the Free Software Foundation, either version 3 of the License, or
  20:mpu6050/mpu6050.c ****  * | any later version.
  21:mpu6050/mpu6050.c ****  * |
  22:mpu6050/mpu6050.c ****  * | This program is distributed in the hope that it will be useful,
  23:mpu6050/mpu6050.c ****  * | but WITHOUT ANY WARRANTY; without even the implied warranty of
  24:mpu6050/mpu6050.c ****  * | MERCHANTABILITY or FITNESS FOR A PARTICULAR PURPOSE.  See the
  25:mpu6050/mpu6050.c ****  * | GNU General Public License for more details.
  26:mpu6050/mpu6050.c ****  * |
  27:mpu6050/mpu6050.c ****  * | You should have received a copy of the GNU General Public License
  28:mpu6050/mpu6050.c ****  * | along with this program.  If not, see <http://www.gnu.org/licenses/>.
  29:mpu6050/mpu6050.c ****  * |
ARM GAS  /tmp/ccWaMcpH.s 			page 2


  30:mpu6050/mpu6050.c ****  * | Kalman filter algorithm used from https://github.com/TKJElectronics/KalmanFilter
  31:mpu6050/mpu6050.c ****  * |---------------------------------------------------------------------------------
  32:mpu6050/mpu6050.c ****  */
  33:mpu6050/mpu6050.c **** 
  34:mpu6050/mpu6050.c **** #include <math.h>
  35:mpu6050/mpu6050.c **** #include "mpu6050.h"
  36:mpu6050/mpu6050.c **** //#include "my_math.h"
  37:mpu6050/mpu6050.c **** #define RAD_TO_DEG 57.295779513082320876798154814105		//Áî®‰ª•ÂºßÂ∫¶ËΩ¨ËßíÂ∫¶ÔºåËßíÂ∫¶ = ÂºßÂ∫¶ √ó 
  38:mpu6050/mpu6050.c **** 
  39:mpu6050/mpu6050.c **** #define WHO_AM_I_REG 				0x75				// MPU6050 ÁöÑ WHO_AM_I ÂØÑÂ≠òÂô®Âú∞ÂùÄ„ÄÇÈÄöËøáËØªÂèñËØ•ÂØÑÂ≠òÂô®
  40:mpu6050/mpu6050.c **** #define PWR_MGMT_1_REG 				0x6B  			// MPU6050 ÁöÑ Power Management 1 ÂØÑÂ≠òÂô®Âú∞ÂùÄ (ÁîµÊ∫êÁÆ°ÁêÜ
  41:mpu6050/mpu6050.c **** #define SMPLRT_DIV_REG 				0x19     		// MPU6050 ÁöÑ Sample Rate Divider ÂØÑÂ≠òÂô®Âú∞ÂùÄ (ÈááÊ†∑ÈÄü
  42:mpu6050/mpu6050.c **** #define ACCEL_CONFIG_REG 			0x1C     		// MPU6050 ÁöÑ ACCEL_CONFIG ÂØÑÂ≠òÂô®Âú∞ÂùÄ (Âä†ÈÄüÂ∫¶ËÆ°ÈÖç
  43:mpu6050/mpu6050.c **** #define ACCEL_XOUT_H_REG 			0x3B     		// MPU6050 ÁöÑÂä†ÈÄüÂ∫¶ËÆ° X ËΩ¥È´ò‰ΩçÊï∞ÊçÆÂØÑÂ≠òÂô®Âú∞ÂùÄÔ
  44:mpu6050/mpu6050.c **** #define TEMP_OUT_H_REG 				0x41      	// MPU6050 ÁöÑÊ∏©Â∫¶‰º†ÊÑüÂô®È´ò‰ΩçÊï∞ÊçÆÂØÑÂ≠òÂô®Âú∞ÂùÄÔºåÁî
  45:mpu6050/mpu6050.c **** #define GYRO_CONFIG_REG 			0x1B      	// MPU6050 ÁöÑ GYRO_CONFIG ÂØÑÂ≠òÂô®Âú∞ÂùÄ (ÈôÄËû∫‰ª™ÈÖçÁΩÆÂØ
  46:mpu6050/mpu6050.c **** #define GYRO_XOUT_H_REG 			0x43      	// MPU6050 ÁöÑÈôÄËû∫‰ª™ X ËΩ¥È´ò‰ΩçÊï∞ÊçÆÂØÑÂ≠òÂô®Âú∞ÂùÄÔºåÁî
  47:mpu6050/mpu6050.c **** 
  48:mpu6050/mpu6050.c **** // Setup MPU6050
  49:mpu6050/mpu6050.c **** #define MPU6050_ADDR 0xD0  		// MPU6050 ÁöÑË°•‰ΩçÂêéÁöÑ 8 ‰ΩçÂú∞ÂùÄÔºåMPU6050ÁöÑ 7 ‰ΩçÂú∞ÂùÄ‰∏∫ 110
  50:mpu6050/mpu6050.c **** const uint16_t i2c_timeout = 100;  // I2C ÈÄö‰ø°Ë∂ÖÊó∂Êó∂Èó¥ÔºåÂçï‰Ωç‰∏∫ÊØ´Áßí„ÄÇ
  51:mpu6050/mpu6050.c **** const double Accel_Z_corrector = 14418.0;
  52:mpu6050/mpu6050.c **** 
  53:mpu6050/mpu6050.c **** uint32_t mpu_timer;
  54:mpu6050/mpu6050.c **** 
  55:mpu6050/mpu6050.c **** MPU6050_t MPU6050;
  56:mpu6050/mpu6050.c **** 
  57:mpu6050/mpu6050.c **** Kalman_t KalmanX = {
  58:mpu6050/mpu6050.c ****     .Q_angle = 0.001f,
  59:mpu6050/mpu6050.c ****     .Q_bias = 0.003f,
  60:mpu6050/mpu6050.c ****     .R_measure = 0.03f};
  61:mpu6050/mpu6050.c **** 
  62:mpu6050/mpu6050.c **** Kalman_t KalmanY = {
  63:mpu6050/mpu6050.c ****     .Q_angle = 0.001f,
  64:mpu6050/mpu6050.c ****     .Q_bias = 0.003f,
  65:mpu6050/mpu6050.c ****     .R_measure = 0.03f,
  66:mpu6050/mpu6050.c **** };
  67:mpu6050/mpu6050.c **** 
  68:mpu6050/mpu6050.c **** uint8_t check;
  69:mpu6050/mpu6050.c **** uint8_t MPU6050_Init(I2C_HandleTypeDef *I2Cx)
  70:mpu6050/mpu6050.c **** {
  30              		.loc 1 70 1 view -0
  31              		.cfi_startproc
  32              		@ args = 0, pretend = 0, frame = 8
  33              		@ frame_needed = 0, uses_anonymous_args = 0
  34              		.loc 1 70 1 is_stmt 0 view .LVU1
  35 0000 2DE9F041 		push	{r4, r5, r6, r7, r8, lr}
  36              	.LCFI0:
  37              		.cfi_def_cfa_offset 24
  38              		.cfi_offset 4, -24
  39              		.cfi_offset 5, -20
  40              		.cfi_offset 6, -16
  41              		.cfi_offset 7, -12
  42              		.cfi_offset 8, -8
  43              		.cfi_offset 14, -4
  44 0004 86B0     		sub	sp, sp, #24
  45              	.LCFI1:
ARM GAS  /tmp/ccWaMcpH.s 			page 3


  46              		.cfi_def_cfa_offset 48
  47 0006 0546     		mov	r5, r0
  71:mpu6050/mpu6050.c **** 	uint8_t Data;
  48              		.loc 1 71 2 is_stmt 1 view .LVU2
  72:mpu6050/mpu6050.c **** 
  73:mpu6050/mpu6050.c ****     HAL_I2C_Mem_Read(I2Cx, MPU6050_ADDR, WHO_AM_I_REG, 1, &check, 1, i2c_timeout);		// ÈÄöËøá I2Cx 
  49              		.loc 1 73 5 view .LVU3
  50 0008 6423     		movs	r3, #100
  51 000a 0293     		str	r3, [sp, #8]
  52 000c 0123     		movs	r3, #1
  53 000e 0193     		str	r3, [sp, #4]
  54 0010 324C     		ldr	r4, .L6
  55 0012 0094     		str	r4, [sp]
  56 0014 7522     		movs	r2, #117
  57 0016 D021     		movs	r1, #208
  58 0018 FFF7FEFF 		bl	HAL_I2C_Mem_Read
  59              	.LVL1:
  74:mpu6050/mpu6050.c **** 	MPU6050.Devivation_Check_Flag = 0;
  60              		.loc 1 74 2 view .LVU4
  61              		.loc 1 74 32 is_stmt 0 view .LVU5
  62 001c 304B     		ldr	r3, .L6+4
  63 001e 0022     		movs	r2, #0
  64 0020 83F83220 		strb	r2, [r3, #50]
  75:mpu6050/mpu6050.c **** 
  76:mpu6050/mpu6050.c **** 	if (check == 0x68) // Ê£ÄÈ™å check ÁöÑÂÄº ÊòØÂê¶‰∏∫ 0x68
  65              		.loc 1 76 2 is_stmt 1 view .LVU6
  66              		.loc 1 76 12 is_stmt 0 view .LVU7
  67 0024 2378     		ldrb	r3, [r4]	@ zero_extendqisi2
  68              		.loc 1 76 5 view .LVU8
  69 0026 682B     		cmp	r3, #104
  70 0028 03D0     		beq	.L5
  77:mpu6050/mpu6050.c ****     {
  78:mpu6050/mpu6050.c **** 		// ËÆæÁΩÆ Power Management 1 ÂØÑÂ≠òÂô® (ÁîµÊ∫êÁÆ°ÁêÜ1ÂØÑÂ≠òÂô®)ÔºåÂ∞ÜÂÖ∂Á¨¨7‰Ωç ÁΩÆ1 (1000 0000) 
  79:mpu6050/mpu6050.c ****         Data = 0x80;
  80:mpu6050/mpu6050.c **** 		//Data = 0x01;
  81:mpu6050/mpu6050.c ****         HAL_I2C_Mem_Write(I2Cx, MPU6050_ADDR, PWR_MGMT_1_REG, 1, &Data, 1, i2c_timeout);
  82:mpu6050/mpu6050.c **** 		HAL_Delay(100);
  83:mpu6050/mpu6050.c **** 		// ËÆæÁΩÆ Power Management 1 ÂØÑÂ≠òÂô® (ÁîµÊ∫êÁÆ°ÁêÜ1ÂØÑÂ≠òÂô®)ÔºåÂ∞ÜÂÖ∂ÊâÄÊúâ‰ΩçÁΩÆ0 (0000 0000)
  84:mpu6050/mpu6050.c ****         Data = 0x01;
  85:mpu6050/mpu6050.c ****         HAL_I2C_Mem_Write(I2Cx, MPU6050_ADDR, PWR_MGMT_1_REG, 1, &Data, 1, i2c_timeout);
  86:mpu6050/mpu6050.c ****         Data = 0x00;
  87:mpu6050/mpu6050.c ****         HAL_I2C_Mem_Write(I2Cx, MPU6050_ADDR, PWR_MGMT_1_REG, 1, &Data, 1, i2c_timeout);
  88:mpu6050/mpu6050.c **** 
  89:mpu6050/mpu6050.c ****         
  90:mpu6050/mpu6050.c **** 		//ËÆæÁΩÆ ACCEL_CONFIG ÂØÑÂ≠òÂô® (Âä†ÈÄüÂ∫¶ËÆ°ÈÖçÁΩÆ Accelerometer Configuration )
  91:mpu6050/mpu6050.c **** 		// ÂÖ≥Èó≠X Y ZËΩ¥ÁöÑËá™Ê£ÄÂäüËÉΩÔºåÈÖçÁΩÆÈáèÁ®ã‰∏∫(-2g,+2g) XA_ST=0,YA_ST=0,ZA_ST=0, FS_SEL=0 -> 
  92:mpu6050/mpu6050.c ****         //Data = 0x00;            //0x00<<3->2   0x01<<3->4   0x02<<3->8  0x03<<3->16
  93:mpu6050/mpu6050.c **** 		Data = 0x00;
  94:mpu6050/mpu6050.c ****         HAL_I2C_Mem_Write(I2Cx, MPU6050_ADDR, ACCEL_CONFIG_REG, 1, &Data, 1, i2c_timeout);
  95:mpu6050/mpu6050.c **** 
  96:mpu6050/mpu6050.c ****         //ËÆæÁΩÆ GYRO_CONFIG ÂØÑÂ≠òÂô® (ÈôÄËû∫‰ª™ÈÖçÁΩÆ Gyroscopic Configuration )
  97:mpu6050/mpu6050.c ****         // ÂÖ≥Èó≠X Y ZËΩ¥ÁöÑËá™Ê£ÄÂäüËÉΩÔºåÂπ∂ÈÖçÁΩÆÈáèÁ®ã‰∏∫ (-250 ¬∞/s,+250 ¬∞/s) XG_ST=0, YG_ST=
  98:mpu6050/mpu6050.c ****         //Data = 0x00;            //0x00<<3->250   0x01<<3->500  0x02<<3->1000   0x03<<3->2000
  99:mpu6050/mpu6050.c ****         Data = 0x18;	
 100:mpu6050/mpu6050.c ****         HAL_I2C_Mem_Write(I2Cx, MPU6050_ADDR, GYRO_CONFIG_REG, 1, &Data, 1, i2c_timeout);
 101:mpu6050/mpu6050.c ****         
 102:mpu6050/mpu6050.c **** 		// ËÆæÁΩÆ Sample Rate Divider ÂØÑÂ≠òÂô® (ÈááÊ†∑ÈÄüÁéáÂàÜÈ¢ëÂô®)ÔºåÈááÊ†∑ÈÄüÁéá = 1kHz / ( 0X04 + 
ARM GAS  /tmp/ccWaMcpH.s 			page 4


 103:mpu6050/mpu6050.c ****         // 45hz
 104:mpu6050/mpu6050.c ****         Data = 0x15;
 105:mpu6050/mpu6050.c ****         HAL_I2C_Mem_Write(I2Cx, MPU6050_ADDR, SMPLRT_DIV_REG, 1, &Data, 1, i2c_timeout);
 106:mpu6050/mpu6050.c **** 
 107:mpu6050/mpu6050.c **** 		return 0;		//ËøîÂõû0ÔºåË°®Á§∫ MPU6050 Ê≠£Â∏∏
 108:mpu6050/mpu6050.c ****     }
 109:mpu6050/mpu6050.c ****     return 1;		//ËøîÂõû1ÔºåË°®Á§∫ MPU6050 ÂºÇÂ∏∏
  71              		.loc 1 109 12 view .LVU9
  72 002a 0120     		movs	r0, #1
  73              	.L2:
 110:mpu6050/mpu6050.c **** }
  74              		.loc 1 110 1 view .LVU10
  75 002c 06B0     		add	sp, sp, #24
  76              	.LCFI2:
  77              		.cfi_remember_state
  78              		.cfi_def_cfa_offset 24
  79              		@ sp needed
  80 002e BDE8F081 		pop	{r4, r5, r6, r7, r8, pc}
  81              	.LVL2:
  82              	.L5:
  83              	.LCFI3:
  84              		.cfi_restore_state
  79:mpu6050/mpu6050.c **** 		//Data = 0x01;
  85              		.loc 1 79 9 is_stmt 1 view .LVU11
  79:mpu6050/mpu6050.c **** 		//Data = 0x01;
  86              		.loc 1 79 14 is_stmt 0 view .LVU12
  87 0032 8023     		movs	r3, #128
  88 0034 8DF81730 		strb	r3, [sp, #23]
  81:mpu6050/mpu6050.c **** 		HAL_Delay(100);
  89              		.loc 1 81 9 is_stmt 1 view .LVU13
  90 0038 6427     		movs	r7, #100
  91 003a 0297     		str	r7, [sp, #8]
  92 003c 0126     		movs	r6, #1
  93 003e 0196     		str	r6, [sp, #4]
  94 0040 0DF11708 		add	r8, sp, #23
  95 0044 CDF80080 		str	r8, [sp]
  96 0048 3346     		mov	r3, r6
  97 004a 6B22     		movs	r2, #107
  98 004c D021     		movs	r1, #208
  99 004e 2846     		mov	r0, r5
 100 0050 FFF7FEFF 		bl	HAL_I2C_Mem_Write
 101              	.LVL3:
  82:mpu6050/mpu6050.c **** 		// ËÆæÁΩÆ Power Management 1 ÂØÑÂ≠òÂô® (ÁîµÊ∫êÁÆ°ÁêÜ1ÂØÑÂ≠òÂô®)ÔºåÂ∞ÜÂÖ∂ÊâÄÊúâ‰ΩçÁΩÆ0 (0000 0000)
 102              		.loc 1 82 3 view .LVU14
 103 0054 3846     		mov	r0, r7
 104 0056 FFF7FEFF 		bl	HAL_Delay
 105              	.LVL4:
  84:mpu6050/mpu6050.c ****         HAL_I2C_Mem_Write(I2Cx, MPU6050_ADDR, PWR_MGMT_1_REG, 1, &Data, 1, i2c_timeout);
 106              		.loc 1 84 9 view .LVU15
  84:mpu6050/mpu6050.c ****         HAL_I2C_Mem_Write(I2Cx, MPU6050_ADDR, PWR_MGMT_1_REG, 1, &Data, 1, i2c_timeout);
 107              		.loc 1 84 14 is_stmt 0 view .LVU16
 108 005a 8DF81760 		strb	r6, [sp, #23]
  85:mpu6050/mpu6050.c ****         Data = 0x00;
 109              		.loc 1 85 9 is_stmt 1 view .LVU17
 110 005e 0297     		str	r7, [sp, #8]
 111 0060 0196     		str	r6, [sp, #4]
 112 0062 CDF80080 		str	r8, [sp]
ARM GAS  /tmp/ccWaMcpH.s 			page 5


 113 0066 3346     		mov	r3, r6
 114 0068 6B22     		movs	r2, #107
 115 006a D021     		movs	r1, #208
 116 006c 2846     		mov	r0, r5
 117 006e FFF7FEFF 		bl	HAL_I2C_Mem_Write
 118              	.LVL5:
  86:mpu6050/mpu6050.c ****         HAL_I2C_Mem_Write(I2Cx, MPU6050_ADDR, PWR_MGMT_1_REG, 1, &Data, 1, i2c_timeout);
 119              		.loc 1 86 9 view .LVU18
  86:mpu6050/mpu6050.c ****         HAL_I2C_Mem_Write(I2Cx, MPU6050_ADDR, PWR_MGMT_1_REG, 1, &Data, 1, i2c_timeout);
 120              		.loc 1 86 14 is_stmt 0 view .LVU19
 121 0072 0024     		movs	r4, #0
 122 0074 8DF81740 		strb	r4, [sp, #23]
  87:mpu6050/mpu6050.c **** 
 123              		.loc 1 87 9 is_stmt 1 view .LVU20
 124 0078 0297     		str	r7, [sp, #8]
 125 007a 0196     		str	r6, [sp, #4]
 126 007c CDF80080 		str	r8, [sp]
 127 0080 3346     		mov	r3, r6
 128 0082 6B22     		movs	r2, #107
 129 0084 D021     		movs	r1, #208
 130 0086 2846     		mov	r0, r5
 131 0088 FFF7FEFF 		bl	HAL_I2C_Mem_Write
 132              	.LVL6:
  93:mpu6050/mpu6050.c ****         HAL_I2C_Mem_Write(I2Cx, MPU6050_ADDR, ACCEL_CONFIG_REG, 1, &Data, 1, i2c_timeout);
 133              		.loc 1 93 3 view .LVU21
  93:mpu6050/mpu6050.c ****         HAL_I2C_Mem_Write(I2Cx, MPU6050_ADDR, ACCEL_CONFIG_REG, 1, &Data, 1, i2c_timeout);
 134              		.loc 1 93 8 is_stmt 0 view .LVU22
 135 008c 8DF81740 		strb	r4, [sp, #23]
  94:mpu6050/mpu6050.c **** 
 136              		.loc 1 94 9 is_stmt 1 view .LVU23
 137 0090 0297     		str	r7, [sp, #8]
 138 0092 0196     		str	r6, [sp, #4]
 139 0094 CDF80080 		str	r8, [sp]
 140 0098 3346     		mov	r3, r6
 141 009a 1C22     		movs	r2, #28
 142 009c D021     		movs	r1, #208
 143 009e 2846     		mov	r0, r5
 144 00a0 FFF7FEFF 		bl	HAL_I2C_Mem_Write
 145              	.LVL7:
  99:mpu6050/mpu6050.c ****         HAL_I2C_Mem_Write(I2Cx, MPU6050_ADDR, GYRO_CONFIG_REG, 1, &Data, 1, i2c_timeout);
 146              		.loc 1 99 9 view .LVU24
  99:mpu6050/mpu6050.c ****         HAL_I2C_Mem_Write(I2Cx, MPU6050_ADDR, GYRO_CONFIG_REG, 1, &Data, 1, i2c_timeout);
 147              		.loc 1 99 14 is_stmt 0 view .LVU25
 148 00a4 1823     		movs	r3, #24
 149 00a6 8DF81730 		strb	r3, [sp, #23]
 100:mpu6050/mpu6050.c ****         
 150              		.loc 1 100 9 is_stmt 1 view .LVU26
 151 00aa 0297     		str	r7, [sp, #8]
 152 00ac 0196     		str	r6, [sp, #4]
 153 00ae CDF80080 		str	r8, [sp]
 154 00b2 3346     		mov	r3, r6
 155 00b4 1B22     		movs	r2, #27
 156 00b6 D021     		movs	r1, #208
 157 00b8 2846     		mov	r0, r5
 158 00ba FFF7FEFF 		bl	HAL_I2C_Mem_Write
 159              	.LVL8:
 104:mpu6050/mpu6050.c ****         HAL_I2C_Mem_Write(I2Cx, MPU6050_ADDR, SMPLRT_DIV_REG, 1, &Data, 1, i2c_timeout);
ARM GAS  /tmp/ccWaMcpH.s 			page 6


 160              		.loc 1 104 9 view .LVU27
 104:mpu6050/mpu6050.c ****         HAL_I2C_Mem_Write(I2Cx, MPU6050_ADDR, SMPLRT_DIV_REG, 1, &Data, 1, i2c_timeout);
 161              		.loc 1 104 14 is_stmt 0 view .LVU28
 162 00be 1523     		movs	r3, #21
 163 00c0 8DF81730 		strb	r3, [sp, #23]
 105:mpu6050/mpu6050.c **** 
 164              		.loc 1 105 9 is_stmt 1 view .LVU29
 165 00c4 0297     		str	r7, [sp, #8]
 166 00c6 0196     		str	r6, [sp, #4]
 167 00c8 CDF80080 		str	r8, [sp]
 168 00cc 3346     		mov	r3, r6
 169 00ce 1922     		movs	r2, #25
 170 00d0 D021     		movs	r1, #208
 171 00d2 2846     		mov	r0, r5
 172 00d4 FFF7FEFF 		bl	HAL_I2C_Mem_Write
 173              	.LVL9:
 107:mpu6050/mpu6050.c ****     }
 174              		.loc 1 107 3 view .LVU30
 107:mpu6050/mpu6050.c ****     }
 175              		.loc 1 107 10 is_stmt 0 view .LVU31
 176 00d8 2046     		mov	r0, r4
 177 00da A7E7     		b	.L2
 178              	.L7:
 179              		.align	2
 180              	.L6:
 181 00dc 00000000 		.word	check
 182 00e0 00000000 		.word	MPU6050
 183              		.cfi_endproc
 184              	.LFE134:
 186              		.global	__aeabi_i2d
 187              		.global	__aeabi_dmul
 188              		.global	__aeabi_ddiv
 189              		.section	.text.MPU6050_Read_Accel,"ax",%progbits
 190              		.align	1
 191              		.global	MPU6050_Read_Accel
 192              		.syntax unified
 193              		.thumb
 194              		.thumb_func
 196              	MPU6050_Read_Accel:
 197              	.LVL10:
 198              	.LFB135:
 111:mpu6050/mpu6050.c **** 
 112:mpu6050/mpu6050.c **** 
 113:mpu6050/mpu6050.c **** void MPU6050_Read_Accel(I2C_HandleTypeDef *I2Cx, MPU6050_t *DataStruct)
 114:mpu6050/mpu6050.c **** {
 199              		.loc 1 114 1 is_stmt 1 view -0
 200              		.cfi_startproc
 201              		@ args = 0, pretend = 0, frame = 8
 202              		@ frame_needed = 0, uses_anonymous_args = 0
 203              		.loc 1 114 1 is_stmt 0 view .LVU33
 204 0000 70B5     		push	{r4, r5, r6, lr}
 205              	.LCFI4:
 206              		.cfi_def_cfa_offset 16
 207              		.cfi_offset 4, -16
 208              		.cfi_offset 5, -12
 209              		.cfi_offset 6, -8
 210              		.cfi_offset 14, -4
ARM GAS  /tmp/ccWaMcpH.s 			page 7


 211 0002 86B0     		sub	sp, sp, #24
 212              	.LCFI5:
 213              		.cfi_def_cfa_offset 40
 214 0004 0C46     		mov	r4, r1
 115:mpu6050/mpu6050.c ****     uint8_t Rec_Data[6];	//Â≠òÂÇ®ËØªÂèñÂà∞ÁöÑ 6 Â≠óËäÇÂä†ÈÄüÂ∫¶ËÆ°ÂéüÂßãÊï∞ÊçÆ
 215              		.loc 1 115 5 is_stmt 1 view .LVU34
 116:mpu6050/mpu6050.c **** 
 117:mpu6050/mpu6050.c **** 
 118:mpu6050/mpu6050.c ****     // ÈÄöËøá I2Cx ËÆøÈóÆ MPU6050 ÁöÑ Accelerometer Measurements ÂØÑÂ≠òÂô®ÁªÑ‰∏≠ÁöÑ ACCEL_XOUT_H_RE
 119:mpu6050/mpu6050.c ****     HAL_I2C_Mem_Read(I2Cx, MPU6050_ADDR, ACCEL_XOUT_H_REG, 1, Rec_Data, 6, i2c_timeout);
 216              		.loc 1 119 5 view .LVU35
 217 0006 6423     		movs	r3, #100
 218 0008 0293     		str	r3, [sp, #8]
 219 000a 0623     		movs	r3, #6
 220 000c 0193     		str	r3, [sp, #4]
 221 000e 04AB     		add	r3, sp, #16
 222 0010 0093     		str	r3, [sp]
 223 0012 0123     		movs	r3, #1
 224 0014 3B22     		movs	r2, #59
 225 0016 D021     		movs	r1, #208
 226              	.LVL11:
 227              		.loc 1 119 5 is_stmt 0 view .LVU36
 228 0018 FFF7FEFF 		bl	HAL_I2C_Mem_Read
 229              	.LVL12:
 120:mpu6050/mpu6050.c **** 
 121:mpu6050/mpu6050.c ****     //Â∞ÜËØªÂèñÂà∞ÁöÑÂ≠òÂÇ®Âú® Rec_Data[6] ‰∏≠ÁöÑÂéüÂßãÊï∞ÊçÆ ÂàÜÁ¶ªËΩ¨Êç¢‰∏∫ X„ÄÅY„ÄÅZËΩ¥Âä†ÈÄüÂ∫¶
 122:mpu6050/mpu6050.c ****     DataStruct->Accel_X_RAW = (int16_t)(Rec_Data[0] << 8 | Rec_Data[1]);
 230              		.loc 1 122 5 is_stmt 1 view .LVU37
 231              		.loc 1 122 49 is_stmt 0 view .LVU38
 232 001c 9DF81030 		ldrb	r3, [sp, #16]	@ zero_extendqisi2
 233              		.loc 1 122 68 view .LVU39
 234 0020 9DF81100 		ldrb	r0, [sp, #17]	@ zero_extendqisi2
 235              		.loc 1 122 31 view .LVU40
 236 0024 40EA0320 		orr	r0, r0, r3, lsl #8
 237 0028 00B2     		sxth	r0, r0
 238              		.loc 1 122 29 view .LVU41
 239 002a 2080     		strh	r0, [r4]	@ movhi
 123:mpu6050/mpu6050.c ****     DataStruct->Accel_Y_RAW = (int16_t)(Rec_Data[2] << 8 | Rec_Data[3]);
 240              		.loc 1 123 5 is_stmt 1 view .LVU42
 241              		.loc 1 123 49 is_stmt 0 view .LVU43
 242 002c 9DF81230 		ldrb	r3, [sp, #18]	@ zero_extendqisi2
 243              		.loc 1 123 68 view .LVU44
 244 0030 9DF81360 		ldrb	r6, [sp, #19]	@ zero_extendqisi2
 245              		.loc 1 123 31 view .LVU45
 246 0034 46EA0326 		orr	r6, r6, r3, lsl #8
 247 0038 36B2     		sxth	r6, r6
 248              		.loc 1 123 29 view .LVU46
 249 003a 6680     		strh	r6, [r4, #2]	@ movhi
 124:mpu6050/mpu6050.c ****     DataStruct->Accel_Z_RAW = (int16_t)(Rec_Data[4] << 8 | Rec_Data[5]);
 250              		.loc 1 124 5 is_stmt 1 view .LVU47
 251              		.loc 1 124 49 is_stmt 0 view .LVU48
 252 003c 9DF81430 		ldrb	r3, [sp, #20]	@ zero_extendqisi2
 253              		.loc 1 124 68 view .LVU49
 254 0040 9DF81550 		ldrb	r5, [sp, #21]	@ zero_extendqisi2
 255              		.loc 1 124 31 view .LVU50
 256 0044 45EA0325 		orr	r5, r5, r3, lsl #8
 257 0048 2DB2     		sxth	r5, r5
ARM GAS  /tmp/ccWaMcpH.s 			page 8


 258              		.loc 1 124 29 view .LVU51
 259 004a A580     		strh	r5, [r4, #4]	@ movhi
 125:mpu6050/mpu6050.c **** 
 126:mpu6050/mpu6050.c ****     /*** Â∞ÜÂéüÂßãÂÄºËΩ¨Êç¢‰∏∫‰ª• 'g' ‰∏∫Âçï‰ΩçÁöÑÂä†ÈÄüÂ∫¶ÂÄº„ÄÇ
 127:mpu6050/mpu6050.c ****      Ê†πÊçÆ FS_SEL ÈÖçÁΩÆÊù•ËøõË°åÊç¢ÁÆóÔºåËøôÈáå FS_SEL = 0ÔºåÂØπÂ∫îÈáèÁ®ã‰∏∫ ¬±2gÔºå
 128:mpu6050/mpu6050.c ****     Âõ†Ê≠§ÈúÄË¶ÅÂ∞ÜÂéüÂßãÂÄºÈô§‰ª• 16384.0ÔºåÊù•ÂæóÂà∞Âä†ÈÄüÂ∫¶ÂÄº„ÄÇ 
 129:mpu6050/mpu6050.c ****             Ê†πÊçÆ Accelerometer Measurements Âä†ÈÄüÂ∫¶ËÆ°ÊµãÈáèÂØÑÂ≠òÂô®ÁªÑ‰∏≠ÁöÑ AFS_SEL ÈÖçÁΩÆ‰∏
 130:mpu6050/mpu6050.c ****     Êõ¥Â§öÁªÜËäÇËØ∑ÂèÇËÄÉ ACCEL_CONFIG ‰∏é Accelerometer MeasurementsÂØÑÂ≠òÂô®ÁöÑÈÖçÁΩÆ„ÄÇ  ****/
 131:mpu6050/mpu6050.c **** 
 132:mpu6050/mpu6050.c ****     // Â∞ÜÂéüÂßãÂÄºËΩ¨Êç¢‰∏∫ g ‰∏∫Âçï‰ΩçÁöÑÂä†ÈÄüÂ∫¶
 133:mpu6050/mpu6050.c **** 
 134:mpu6050/mpu6050.c ****     DataStruct->Ax = DataStruct->Accel_X_RAW / 16384.0;  // X ËΩ¥Âä†ÈÄüÂ∫¶
 260              		.loc 1 134 5 is_stmt 1 view .LVU52
 261              		.loc 1 134 46 is_stmt 0 view .LVU53
 262 004c FFF7FEFF 		bl	__aeabi_i2d
 263              	.LVL13:
 264 0050 0022     		movs	r2, #0
 265 0052 0F4B     		ldr	r3, .L10+8
 266 0054 FFF7FEFF 		bl	__aeabi_dmul
 267              	.LVL14:
 268              		.loc 1 134 20 view .LVU54
 269 0058 C4E90201 		strd	r0, [r4, #8]
 135:mpu6050/mpu6050.c ****     DataStruct->Ay = DataStruct->Accel_Y_RAW / 16384.0;  // Y ËΩ¥Âä†ÈÄüÂ∫¶
 270              		.loc 1 135 5 is_stmt 1 view .LVU55
 271              		.loc 1 135 46 is_stmt 0 view .LVU56
 272 005c 3046     		mov	r0, r6
 273 005e FFF7FEFF 		bl	__aeabi_i2d
 274              	.LVL15:
 275 0062 0022     		movs	r2, #0
 276 0064 0A4B     		ldr	r3, .L10+8
 277 0066 FFF7FEFF 		bl	__aeabi_dmul
 278              	.LVL16:
 279              		.loc 1 135 20 view .LVU57
 280 006a C4E90401 		strd	r0, [r4, #16]
 136:mpu6050/mpu6050.c ****     DataStruct->Az = DataStruct->Accel_Z_RAW / Accel_Z_corrector;		//Z ËΩ¥Âä†ÈÄüÂ∫¶ (Áî±‰∫éZËΩ¥Âä†È
 281              		.loc 1 136 5 is_stmt 1 view .LVU58
 282              		.loc 1 136 46 is_stmt 0 view .LVU59
 283 006e 2846     		mov	r0, r5
 284 0070 FFF7FEFF 		bl	__aeabi_i2d
 285              	.LVL17:
 286 0074 04A3     		adr	r3, .L10
 287 0076 D3E90023 		ldrd	r2, [r3]
 288 007a FFF7FEFF 		bl	__aeabi_ddiv
 289              	.LVL18:
 290              		.loc 1 136 20 view .LVU60
 291 007e C4E90601 		strd	r0, [r4, #24]
 137:mpu6050/mpu6050.c **** }
 292              		.loc 1 137 1 view .LVU61
 293 0082 06B0     		add	sp, sp, #24
 294              	.LCFI6:
 295              		.cfi_def_cfa_offset 16
 296              		@ sp needed
 297 0084 70BD     		pop	{r4, r5, r6, pc}
 298              	.LVL19:
 299              	.L11:
 300              		.loc 1 137 1 view .LVU62
 301 0086 00BF     		.align	3
ARM GAS  /tmp/ccWaMcpH.s 			page 9


 302              	.L10:
 303 0088 00000000 		.word	0
 304 008c 0029CC40 		.word	1087121664
 305 0090 0000103F 		.word	1058013184
 306              		.cfi_endproc
 307              	.LFE135:
 309              		.global	__aeabi_f2d
 310              		.section	.text.MPU6050_Read_Gyro,"ax",%progbits
 311              		.align	1
 312              		.global	MPU6050_Read_Gyro
 313              		.syntax unified
 314              		.thumb
 315              		.thumb_func
 317              	MPU6050_Read_Gyro:
 318              	.LVL20:
 319              	.LFB136:
 138:mpu6050/mpu6050.c **** 
 139:mpu6050/mpu6050.c **** void MPU6050_Read_Gyro(I2C_HandleTypeDef *I2Cx, MPU6050_t *DataStruct)
 140:mpu6050/mpu6050.c **** {
 320              		.loc 1 140 1 is_stmt 1 view -0
 321              		.cfi_startproc
 322              		@ args = 0, pretend = 0, frame = 8
 323              		@ frame_needed = 0, uses_anonymous_args = 0
 324              		.loc 1 140 1 is_stmt 0 view .LVU64
 325 0000 70B5     		push	{r4, r5, r6, lr}
 326              	.LCFI7:
 327              		.cfi_def_cfa_offset 16
 328              		.cfi_offset 4, -16
 329              		.cfi_offset 5, -12
 330              		.cfi_offset 6, -8
 331              		.cfi_offset 14, -4
 332 0002 2DED028B 		vpush.64	{d8}
 333              	.LCFI8:
 334              		.cfi_def_cfa_offset 24
 335              		.cfi_offset 80, -24
 336              		.cfi_offset 81, -20
 337 0006 86B0     		sub	sp, sp, #24
 338              	.LCFI9:
 339              		.cfi_def_cfa_offset 48
 340 0008 0E46     		mov	r6, r1
 141:mpu6050/mpu6050.c ****     uint8_t Rec_Data[6];		//Â≠òÂÇ®ËØªÂèñÂà∞ÁöÑ 6 Â≠óËäÇÈôÄËû∫‰ª™ËÆ°ÂéüÂßãÊï∞ÊçÆ
 341              		.loc 1 141 5 is_stmt 1 view .LVU65
 142:mpu6050/mpu6050.c **** 
 143:mpu6050/mpu6050.c ****     // ÈÄöËøá I2Cx ËÆøÈóÆ MPU6050 ÁöÑ Gyroscope Measurements ÂØÑÂ≠òÂô®ÁªÑ‰∏≠ÁöÑ GYRO_XOUT_H_REG ÂØÑ
 144:mpu6050/mpu6050.c ****     HAL_I2C_Mem_Read(I2Cx, MPU6050_ADDR, GYRO_XOUT_H_REG, 1, Rec_Data, 6, i2c_timeout);
 342              		.loc 1 144 5 view .LVU66
 343 000a 6423     		movs	r3, #100
 344 000c 0293     		str	r3, [sp, #8]
 345 000e 0623     		movs	r3, #6
 346 0010 0193     		str	r3, [sp, #4]
 347 0012 04AB     		add	r3, sp, #16
 348 0014 0093     		str	r3, [sp]
 349 0016 0123     		movs	r3, #1
 350 0018 4322     		movs	r2, #67
 351 001a D021     		movs	r1, #208
 352              	.LVL21:
 353              		.loc 1 144 5 is_stmt 0 view .LVU67
ARM GAS  /tmp/ccWaMcpH.s 			page 10


 354 001c FFF7FEFF 		bl	HAL_I2C_Mem_Read
 355              	.LVL22:
 145:mpu6050/mpu6050.c **** 
 146:mpu6050/mpu6050.c ****     //Â∞ÜËØªÂèñÂà∞ÁöÑÂ≠òÂÇ®Âú® Rec_Data[6] ‰∏≠ÁöÑÂéüÂßãÊï∞ÊçÆ ÂàÜÁ¶ªËΩ¨Êç¢‰∏∫ X„ÄÅY„ÄÅZËΩ¥ËßíÈÄüÂ∫¶
 147:mpu6050/mpu6050.c ****     DataStruct->Gyro_X_RAW = (int16_t)(Rec_Data[0] << 8 | Rec_Data[1]);
 356              		.loc 1 147 5 is_stmt 1 view .LVU68
 357              		.loc 1 147 48 is_stmt 0 view .LVU69
 358 0020 9DF81020 		ldrb	r2, [sp, #16]	@ zero_extendqisi2
 359              		.loc 1 147 67 view .LVU70
 360 0024 9DF81130 		ldrb	r3, [sp, #17]	@ zero_extendqisi2
 361              		.loc 1 147 30 view .LVU71
 362 0028 43EA0223 		orr	r3, r3, r2, lsl #8
 363 002c 1BB2     		sxth	r3, r3
 364              		.loc 1 147 28 view .LVU72
 365 002e 3384     		strh	r3, [r6, #32]	@ movhi
 148:mpu6050/mpu6050.c ****     DataStruct->Gyro_Y_RAW = (int16_t)(Rec_Data[2] << 8 | Rec_Data[3]);
 366              		.loc 1 148 5 is_stmt 1 view .LVU73
 367              		.loc 1 148 48 is_stmt 0 view .LVU74
 368 0030 9DF81220 		ldrb	r2, [sp, #18]	@ zero_extendqisi2
 369              		.loc 1 148 67 view .LVU75
 370 0034 9DF81350 		ldrb	r5, [sp, #19]	@ zero_extendqisi2
 371              		.loc 1 148 30 view .LVU76
 372 0038 45EA0225 		orr	r5, r5, r2, lsl #8
 373 003c 2DB2     		sxth	r5, r5
 374              		.loc 1 148 28 view .LVU77
 375 003e 7584     		strh	r5, [r6, #34]	@ movhi
 149:mpu6050/mpu6050.c ****     DataStruct->Gyro_Z_RAW = (int16_t)(Rec_Data[4] << 8 | Rec_Data[5]);
 376              		.loc 1 149 5 is_stmt 1 view .LVU78
 377              		.loc 1 149 48 is_stmt 0 view .LVU79
 378 0040 9DF81420 		ldrb	r2, [sp, #20]	@ zero_extendqisi2
 379              		.loc 1 149 67 view .LVU80
 380 0044 9DF81540 		ldrb	r4, [sp, #21]	@ zero_extendqisi2
 381              		.loc 1 149 30 view .LVU81
 382 0048 44EA0224 		orr	r4, r4, r2, lsl #8
 383 004c 24B2     		sxth	r4, r4
 384              		.loc 1 149 28 view .LVU82
 385 004e B484     		strh	r4, [r6, #36]	@ movhi
 150:mpu6050/mpu6050.c **** 
 151:mpu6050/mpu6050.c ****     /*** Â∞ÜÂéüÂßãÂÄºËΩ¨Êç¢‰∏∫Â∫¶ÊØèÁßíÔºàdpsÔºådegrees per secondÔºâ„ÄÇ
 152:mpu6050/mpu6050.c ****      Ê†πÊçÆ FS_SEL ÁöÑÈÖçÁΩÆÈÄâÊã©ÈÄÇÂΩìÁöÑÊØî‰æãÁ≥ªÊï∞„ÄÇËøôÈáåÂÅáËÆæ FS_SEL = 0ÔºåÂØπÂ∫îÈáèÁ®ã‰∏∫
 153:mpu6050/mpu6050.c ****     Âõ†Ê≠§ÈúÄË¶ÅÂ∞ÜÂéüÂßãÂÄºÈô§‰ª• 131.0 Êù•ÂæóÂà∞ËßíÈÄüÂ∫¶ÔºàdpsÔºâ„ÄÇ
 154:mpu6050/mpu6050.c ****             Ê†πÊçÆ Gyroscope Measurements ËßíÈÄüÂ∫¶ËÆ°ÊµãÈáèÂØÑÂ≠òÂô®ÁªÑ‰∏≠ÁöÑ FS_SEL ÈÖçÁΩÆ‰∏≠ÁöÑÊ
 155:mpu6050/mpu6050.c ****     Êõ¥Â§öÁªÜËäÇËØ∑ÂèÇËÄÉ GYRO_CONFIG ‰∏é Gyroscope MeasurementsÂØÑÂ≠òÂô®ÁöÑÈÖçÁΩÆ„ÄÇ  ****/
 156:mpu6050/mpu6050.c **** 
 157:mpu6050/mpu6050.c ****     // Â∞ÜÂéüÂßãÂÄºËΩ¨Êç¢‰∏∫ dps	‰∏∫Âçï‰ΩçÁöÑÂä†ÈÄüÂ∫¶
 158:mpu6050/mpu6050.c **** 
 159:mpu6050/mpu6050.c ****     DataStruct->Gx = DataStruct->Gyro_X_RAW/32768.0f*2000.0f;  // X ËΩ¥ËßíÈÄüÂ∫¶
 386              		.loc 1 159 5 is_stmt 1 view .LVU83
 387              		.loc 1 159 44 is_stmt 0 view .LVU84
 388 0050 07EE903A 		vmov	s15, r3	@ int
 389 0054 F8EEE77A 		vcvt.f32.s32	s15, s15
 390 0058 DFED168A 		vldr.32	s17, .L14
 391 005c 67EEA87A 		vmul.f32	s15, s15, s17
 392              		.loc 1 159 53 view .LVU85
 393 0060 9FED158A 		vldr.32	s16, .L14+4
 394 0064 67EE887A 		vmul.f32	s15, s15, s16
 395 0068 17EE900A 		vmov	r0, s15
ARM GAS  /tmp/ccWaMcpH.s 			page 11


 396 006c FFF7FEFF 		bl	__aeabi_f2d
 397              	.LVL23:
 398              		.loc 1 159 20 view .LVU86
 399 0070 C6E90E01 		strd	r0, [r6, #56]
 160:mpu6050/mpu6050.c ****     DataStruct->Gy = DataStruct->Gyro_Y_RAW/32768.0f*2000.0f;  // Y ËΩ¥ËßíÈÄüÂ∫¶
 400              		.loc 1 160 5 is_stmt 1 view .LVU87
 401              		.loc 1 160 44 is_stmt 0 view .LVU88
 402 0074 07EE905A 		vmov	s15, r5	@ int
 403 0078 F8EEE77A 		vcvt.f32.s32	s15, s15
 404 007c 67EEA87A 		vmul.f32	s15, s15, s17
 405              		.loc 1 160 53 view .LVU89
 406 0080 67EE887A 		vmul.f32	s15, s15, s16
 407 0084 17EE900A 		vmov	r0, s15
 408 0088 FFF7FEFF 		bl	__aeabi_f2d
 409              	.LVL24:
 410              		.loc 1 160 20 view .LVU90
 411 008c C6E91001 		strd	r0, [r6, #64]
 161:mpu6050/mpu6050.c ****     DataStruct->Gz = DataStruct->Gyro_Z_RAW/32768.0f*2000.0f;  // Z ËΩ¥ËßíÈÄüÂ∫¶
 412              		.loc 1 161 5 is_stmt 1 view .LVU91
 413              		.loc 1 161 44 is_stmt 0 view .LVU92
 414 0090 07EE904A 		vmov	s15, r4	@ int
 415 0094 F8EEE77A 		vcvt.f32.s32	s15, s15
 416 0098 67EEA87A 		vmul.f32	s15, s15, s17
 417              		.loc 1 161 53 view .LVU93
 418 009c 67EE887A 		vmul.f32	s15, s15, s16
 419 00a0 17EE900A 		vmov	r0, s15
 420 00a4 FFF7FEFF 		bl	__aeabi_f2d
 421              	.LVL25:
 422              		.loc 1 161 20 view .LVU94
 423 00a8 C6E91201 		strd	r0, [r6, #72]
 162:mpu6050/mpu6050.c **** }
 424              		.loc 1 162 1 view .LVU95
 425 00ac 06B0     		add	sp, sp, #24
 426              	.LCFI10:
 427              		.cfi_def_cfa_offset 24
 428              		@ sp needed
 429 00ae BDEC028B 		vldm	sp!, {d8}
 430              	.LCFI11:
 431              		.cfi_restore 80
 432              		.cfi_restore 81
 433              		.cfi_def_cfa_offset 16
 434 00b2 70BD     		pop	{r4, r5, r6, pc}
 435              	.LVL26:
 436              	.L15:
 437              		.loc 1 162 1 view .LVU96
 438              		.align	2
 439              	.L14:
 440 00b4 00000038 		.word	939524096
 441 00b8 0000FA44 		.word	1157234688
 442              		.cfi_endproc
 443              	.LFE136:
 445              		.section	.text.MPU6050_Read_Temp,"ax",%progbits
 446              		.align	1
 447              		.global	MPU6050_Read_Temp
 448              		.syntax unified
 449              		.thumb
 450              		.thumb_func
ARM GAS  /tmp/ccWaMcpH.s 			page 12


 452              	MPU6050_Read_Temp:
 453              	.LVL27:
 454              	.LFB137:
 163:mpu6050/mpu6050.c **** 
 164:mpu6050/mpu6050.c **** void MPU6050_Read_Temp(I2C_HandleTypeDef *I2Cx, MPU6050_t *DataStruct)
 165:mpu6050/mpu6050.c **** {
 455              		.loc 1 165 1 is_stmt 1 view -0
 456              		.cfi_startproc
 457              		@ args = 0, pretend = 0, frame = 8
 458              		@ frame_needed = 0, uses_anonymous_args = 0
 459              		.loc 1 165 1 is_stmt 0 view .LVU98
 460 0000 10B5     		push	{r4, lr}
 461              	.LCFI12:
 462              		.cfi_def_cfa_offset 8
 463              		.cfi_offset 4, -8
 464              		.cfi_offset 14, -4
 465 0002 86B0     		sub	sp, sp, #24
 466              	.LCFI13:
 467              		.cfi_def_cfa_offset 32
 468 0004 0C46     		mov	r4, r1
 166:mpu6050/mpu6050.c ****     uint8_t Rec_Data[2];  // Áî®‰∫éÂ≠òÂÇ®‰ªéÊ∏©Â∫¶ÂØÑÂ≠òÂô®ËØªÂèñÁöÑ 2 Â≠óËäÇÊï∞ÊçÆ
 469              		.loc 1 166 5 is_stmt 1 view .LVU99
 167:mpu6050/mpu6050.c ****     int16_t temp;  // Áî®‰∫éÂ≠òÂÇ®ÊãºÊé•ÂêéÁöÑ 16 ‰ΩçÂéüÂßãÊ∏©Â∫¶Êï∞ÊçÆ
 470              		.loc 1 167 5 view .LVU100
 168:mpu6050/mpu6050.c **** 
 169:mpu6050/mpu6050.c ****     // ‰ªé Temperature Measurement Ê∏©Â∫¶ÊµãÈáèÂØÑÂ≠òÂô®ÁªÑ ‰∏≠ÁöÑ TEMP_OUT_H ÂØÑÂ≠òÂô®ÂºÄÂßãÔºåËØª
 170:mpu6050/mpu6050.c **** 
 171:mpu6050/mpu6050.c ****     HAL_I2C_Mem_Read(I2Cx, MPU6050_ADDR, TEMP_OUT_H_REG, 1, Rec_Data, 2, i2c_timeout);
 471              		.loc 1 171 5 view .LVU101
 472 0006 6423     		movs	r3, #100
 473 0008 0293     		str	r3, [sp, #8]
 474 000a 0223     		movs	r3, #2
 475 000c 0193     		str	r3, [sp, #4]
 476 000e 05AB     		add	r3, sp, #20
 477 0010 0093     		str	r3, [sp]
 478 0012 0123     		movs	r3, #1
 479 0014 4122     		movs	r2, #65
 480 0016 D021     		movs	r1, #208
 481              	.LVL28:
 482              		.loc 1 171 5 is_stmt 0 view .LVU102
 483 0018 FFF7FEFF 		bl	HAL_I2C_Mem_Read
 484              	.LVL29:
 172:mpu6050/mpu6050.c **** 
 173:mpu6050/mpu6050.c **** 	// Â∞ÜËØªÂèñÂà∞ÁöÑÈ´òÂ≠óËäÇÂíå‰ΩéÂ≠óËäÇÊãºÊé•‰∏∫ 16 ‰ΩçÁöÑÊúâÁ¨¶Âè∑Êï¥Êï∞
 174:mpu6050/mpu6050.c ****     temp = (int16_t)(Rec_Data[0] << 8 | Rec_Data[1]);
 485              		.loc 1 174 5 is_stmt 1 view .LVU103
 486              		.loc 1 174 30 is_stmt 0 view .LVU104
 487 001c 9DF81430 		ldrb	r3, [sp, #20]	@ zero_extendqisi2
 488              		.loc 1 174 12 view .LVU105
 489 0020 1B02     		lsls	r3, r3, #8
 490 0022 1BB2     		sxth	r3, r3
 491              		.loc 1 174 49 view .LVU106
 492 0024 9DF81520 		ldrb	r2, [sp, #21]	@ zero_extendqisi2
 493              		.loc 1 174 10 view .LVU107
 494 0028 1343     		orrs	r3, r3, r2
 495              	.LVL30:
 175:mpu6050/mpu6050.c **** 
ARM GAS  /tmp/ccWaMcpH.s 			page 13


 176:mpu6050/mpu6050.c ****     // Â∞ÜÂéüÂßãÊ∏©Â∫¶ÂÄºËΩ¨Êç¢‰∏∫ÊëÑÊ∞èÊ∏©Â∫¶ (ËØ¶ÊÉÖËßÅ Temperature Measurement
 177:mpu6050/mpu6050.c ****     // ËΩ¨Êç¢ÂÖ¨ÂºèÔºöÊ∏©Â∫¶ÂÄº(¬∞C) = (ÂéüÂßãÂÄº / 340.0) + 36.53	
 178:mpu6050/mpu6050.c ****     DataStruct->Temperature = (float)((int16_t)temp / (float)340.0 + (float)36.53);
 496              		.loc 1 178 5 is_stmt 1 view .LVU108
 497              		.loc 1 178 53 is_stmt 0 view .LVU109
 498 002a 07EE903A 		vmov	s15, r3	@ int
 499 002e F8EEE77A 		vcvt.f32.s32	s15, s15
 500 0032 DFED066A 		vldr.32	s13, .L18
 501 0036 87EEA67A 		vdiv.f32	s14, s15, s13
 502              		.loc 1 178 31 view .LVU110
 503 003a DFED057A 		vldr.32	s15, .L18+4
 504 003e 77EE277A 		vadd.f32	s15, s14, s15
 505              		.loc 1 178 29 view .LVU111
 506 0042 C4ED147A 		vstr.32	s15, [r4, #80]
 179:mpu6050/mpu6050.c **** }
 507              		.loc 1 179 1 view .LVU112
 508 0046 06B0     		add	sp, sp, #24
 509              	.LCFI14:
 510              		.cfi_def_cfa_offset 8
 511              		@ sp needed
 512 0048 10BD     		pop	{r4, pc}
 513              	.LVL31:
 514              	.L19:
 515              		.loc 1 179 1 view .LVU113
 516 004a 00BF     		.align	2
 517              	.L18:
 518 004c 0000AA43 		.word	1135214592
 519 0050 B81E1242 		.word	1108483768
 520              		.cfi_endproc
 521              	.LFE137:
 523              		.section	.text.MPU6050_Read_All,"ax",%progbits
 524              		.align	1
 525              		.global	MPU6050_Read_All
 526              		.syntax unified
 527              		.thumb
 528              		.thumb_func
 530              	MPU6050_Read_All:
 531              	.LVL32:
 532              	.LFB138:
 180:mpu6050/mpu6050.c **** 
 181:mpu6050/mpu6050.c **** 
 182:mpu6050/mpu6050.c **** /**
 183:mpu6050/mpu6050.c ****  * @brief ËØªÂèñ MPU6050 ÊâÄÊúâ‰º†ÊÑüÂô®Êï∞ÊçÆÔºåÂπ∂‰ΩøÁî®Âç°Â∞îÊõºÊª§Ê≥¢Âô®ËÆ°ÁÆóËßíÂ∫¶
 184:mpu6050/mpu6050.c ****  * 
 185:mpu6050/mpu6050.c ****  * ËØ•ÂáΩÊï∞ÈÄöËøá I2C Êé•Âè£ËØªÂèñ MPU6050 ‰º†ÊÑüÂô®ÁöÑÂä†ÈÄüÂ∫¶ËÆ°„ÄÅÈôÄËû∫‰ª™ÂíåÊ∏©Â∫¶ÁöÑÊï∞ÊçÆÔ
 186:mpu6050/mpu6050.c ****  * Âπ∂‰ΩøÁî®Âç°Â∞îÊõºÊª§Ê≥¢Âô®ÂØπÈ¢ÑÊµãËßíÂ∫¶‰∏éÊµãÈáèËßíÂ∫¶(Âä†ÈÄüÂ∫¶ËÆ°ÂíåÈôÄËû∫‰ª™Êï∞ÊçÆ)ËøõË°åË
 187:mpu6050/mpu6050.c ****  *
 188:mpu6050/mpu6050.c ****  * @param I2Cx I2C Âè•ÊüÑÔºåÁî®‰∫éÈÄöËøá I2C Êé•Âè£‰∏é MPU6050 ÈÄö‰ø°
 189:mpu6050/mpu6050.c ****  * @param DataStruct ÊåáÂêë MPU6050_t ÁªìÊûÑ‰ΩìÁöÑÊåáÈíàÔºåÂ≠òÂÇ®ËØªÂèñÂà∞ÁöÑÂéüÂßã‰º†ÊÑüÂô®Êï∞ÊçÆ‰
 190:mpu6050/mpu6050.c ****  */
 191:mpu6050/mpu6050.c **** 
 192:mpu6050/mpu6050.c **** HAL_StatusTypeDef test;
 193:mpu6050/mpu6050.c **** 
 194:mpu6050/mpu6050.c **** void MPU6050_Read_All(I2C_HandleTypeDef *I2Cx, MPU6050_t *DataStruct)
 195:mpu6050/mpu6050.c **** {
 533              		.loc 1 195 1 is_stmt 1 view -0
 534              		.cfi_startproc
ARM GAS  /tmp/ccWaMcpH.s 			page 14


 535              		@ args = 0, pretend = 0, frame = 16
 536              		@ frame_needed = 0, uses_anonymous_args = 0
 537              		.loc 1 195 1 is_stmt 0 view .LVU115
 538 0000 F0B5     		push	{r4, r5, r6, r7, lr}
 539              	.LCFI15:
 540              		.cfi_def_cfa_offset 20
 541              		.cfi_offset 4, -20
 542              		.cfi_offset 5, -16
 543              		.cfi_offset 6, -12
 544              		.cfi_offset 7, -8
 545              		.cfi_offset 14, -4
 546 0002 2DED028B 		vpush.64	{d8}
 547              	.LCFI16:
 548              		.cfi_def_cfa_offset 28
 549              		.cfi_offset 80, -28
 550              		.cfi_offset 81, -24
 551 0006 89B0     		sub	sp, sp, #36
 552              	.LCFI17:
 553              		.cfi_def_cfa_offset 64
 554 0008 0C46     		mov	r4, r1
 196:mpu6050/mpu6050.c ****     //uint8_t Rec_Data[14];   // Áî®‰∫éÂ≠òÂÇ®‰ªé MPU6050 ËØªÂèñÁöÑ 14 Â≠óËäÇÊï∞ÊçÆ
 197:mpu6050/mpu6050.c ****     int16_t temp;           // ‰∏¥Êó∂ÂèòÈáèÔºåÁî®‰∫éÂ≠òÂÇ®ÂéüÂßãÊ∏©Â∫¶Êï∞ÊçÆ
 555              		.loc 1 197 5 is_stmt 1 view .LVU116
 198:mpu6050/mpu6050.c ****     uint8_t Rec_Data[14];   // Áî®‰∫éÂ≠òÂÇ®‰ªé MPU6050 ËØªÂèñÁöÑ 14 Â≠óËäÇÊï∞ÊçÆ
 556              		.loc 1 198 5 view .LVU117
 199:mpu6050/mpu6050.c ****     //1.ÈÄöËøá I2C Êé•Âè£‰ªé MPU6050 ËØªÂèñ 14 Â≠óËäÇÂä†ÈÄüÂ∫¶„ÄÅÊ∏©Â∫¶„ÄÅËßíÈÄüÂ∫¶Êï∞ÊçÆ
 200:mpu6050/mpu6050.c ****     test = HAL_I2C_Mem_Read(I2Cx, MPU6050_ADDR, ACCEL_XOUT_H_REG, 1, Rec_Data, 14, HAL_MAX_DELAY);
 557              		.loc 1 200 5 view .LVU118
 558              		.loc 1 200 12 is_stmt 0 view .LVU119
 559 000a 4FF0FF33 		mov	r3, #-1
 560 000e 0293     		str	r3, [sp, #8]
 561 0010 0E23     		movs	r3, #14
 562 0012 0193     		str	r3, [sp, #4]
 563 0014 04AB     		add	r3, sp, #16
 564 0016 0093     		str	r3, [sp]
 565 0018 0123     		movs	r3, #1
 566 001a 3B22     		movs	r2, #59
 567 001c D021     		movs	r1, #208
 568              	.LVL33:
 569              		.loc 1 200 12 view .LVU120
 570 001e FFF7FEFF 		bl	HAL_I2C_Mem_Read
 571              	.LVL34:
 572              		.loc 1 200 10 discriminator 1 view .LVU121
 573 0022 534B     		ldr	r3, .L22
 574 0024 1870     		strb	r0, [r3]
 201:mpu6050/mpu6050.c **** 
 202:mpu6050/mpu6050.c **** 	//2.Ëß£ÊûêÊï∞ÊçÆ
 203:mpu6050/mpu6050.c **** 	
 204:mpu6050/mpu6050.c ****     // Ëß£ÊûêÂä†ÈÄüÂ∫¶ËÆ°Êï∞ÊçÆ
 205:mpu6050/mpu6050.c ****     DataStruct->Accel_X_RAW = (int16_t)(Rec_Data[0] << 8 | Rec_Data[1]);
 575              		.loc 1 205 5 is_stmt 1 view .LVU122
 576              		.loc 1 205 49 is_stmt 0 view .LVU123
 577 0026 9DF81020 		ldrb	r2, [sp, #16]	@ zero_extendqisi2
 578              		.loc 1 205 68 view .LVU124
 579 002a 9DF81130 		ldrb	r3, [sp, #17]	@ zero_extendqisi2
 580              		.loc 1 205 31 view .LVU125
 581 002e 43EA0223 		orr	r3, r3, r2, lsl #8
ARM GAS  /tmp/ccWaMcpH.s 			page 15


 582 0032 1BB2     		sxth	r3, r3
 583              		.loc 1 205 29 view .LVU126
 584 0034 2380     		strh	r3, [r4]	@ movhi
 206:mpu6050/mpu6050.c ****     DataStruct->Accel_Y_RAW = (int16_t)(Rec_Data[2] << 8 | Rec_Data[3]);
 585              		.loc 1 206 5 is_stmt 1 view .LVU127
 586              		.loc 1 206 49 is_stmt 0 view .LVU128
 587 0036 9DF81220 		ldrb	r2, [sp, #18]	@ zero_extendqisi2
 588              		.loc 1 206 68 view .LVU129
 589 003a 9DF81360 		ldrb	r6, [sp, #19]	@ zero_extendqisi2
 590              		.loc 1 206 31 view .LVU130
 591 003e 46EA0226 		orr	r6, r6, r2, lsl #8
 592 0042 36B2     		sxth	r6, r6
 593              		.loc 1 206 29 view .LVU131
 594 0044 6680     		strh	r6, [r4, #2]	@ movhi
 207:mpu6050/mpu6050.c ****     DataStruct->Accel_Z_RAW = (int16_t)(Rec_Data[4] << 8 | Rec_Data[5]);
 595              		.loc 1 207 5 is_stmt 1 view .LVU132
 596              		.loc 1 207 49 is_stmt 0 view .LVU133
 597 0046 9DF81420 		ldrb	r2, [sp, #20]	@ zero_extendqisi2
 598              		.loc 1 207 68 view .LVU134
 599 004a 9DF81550 		ldrb	r5, [sp, #21]	@ zero_extendqisi2
 600              		.loc 1 207 31 view .LVU135
 601 004e 45EA0225 		orr	r5, r5, r2, lsl #8
 602 0052 2DB2     		sxth	r5, r5
 603              		.loc 1 207 29 view .LVU136
 604 0054 A580     		strh	r5, [r4, #4]	@ movhi
 208:mpu6050/mpu6050.c ****     // Ëß£ÊûêÊ∏©Â∫¶Êï∞ÊçÆ
 209:mpu6050/mpu6050.c ****     temp = (int16_t)(Rec_Data[6] << 8 | Rec_Data[7]);
 605              		.loc 1 209 5 is_stmt 1 view .LVU137
 606              		.loc 1 209 30 is_stmt 0 view .LVU138
 607 0056 9DF81620 		ldrb	r2, [sp, #22]	@ zero_extendqisi2
 608              		.loc 1 209 12 view .LVU139
 609 005a 1202     		lsls	r2, r2, #8
 610 005c 12B2     		sxth	r2, r2
 611              		.loc 1 209 49 view .LVU140
 612 005e 9DF81710 		ldrb	r1, [sp, #23]	@ zero_extendqisi2
 613              		.loc 1 209 10 view .LVU141
 614 0062 42EA0107 		orr	r7, r2, r1
 615              	.LVL35:
 210:mpu6050/mpu6050.c ****     // Ëß£ÊûêÈôÄËû∫‰ª™Êï∞ÊçÆ
 211:mpu6050/mpu6050.c ****     DataStruct->Gyro_X_RAW = (int16_t)(Rec_Data[8] << 8 | Rec_Data[9]);
 616              		.loc 1 211 5 is_stmt 1 view .LVU142
 617              		.loc 1 211 48 is_stmt 0 view .LVU143
 618 0066 9DF81810 		ldrb	r1, [sp, #24]	@ zero_extendqisi2
 619              		.loc 1 211 67 view .LVU144
 620 006a 9DF81920 		ldrb	r2, [sp, #25]	@ zero_extendqisi2
 621              		.loc 1 211 30 view .LVU145
 622 006e 42EA0122 		orr	r2, r2, r1, lsl #8
 623              		.loc 1 211 28 view .LVU146
 624 0072 2284     		strh	r2, [r4, #32]	@ movhi
 212:mpu6050/mpu6050.c ****     DataStruct->Gyro_Y_RAW = (int16_t)(Rec_Data[10] << 8 | Rec_Data[11]);
 625              		.loc 1 212 5 is_stmt 1 view .LVU147
 626              		.loc 1 212 48 is_stmt 0 view .LVU148
 627 0074 9DF81A10 		ldrb	r1, [sp, #26]	@ zero_extendqisi2
 628              		.loc 1 212 68 view .LVU149
 629 0078 9DF81B20 		ldrb	r2, [sp, #27]	@ zero_extendqisi2
 630              		.loc 1 212 30 view .LVU150
 631 007c 42EA0122 		orr	r2, r2, r1, lsl #8
ARM GAS  /tmp/ccWaMcpH.s 			page 16


 632              		.loc 1 212 28 view .LVU151
 633 0080 6284     		strh	r2, [r4, #34]	@ movhi
 213:mpu6050/mpu6050.c ****     DataStruct->Gyro_Z_RAW = (int16_t)(Rec_Data[12] << 8 | Rec_Data[13]);
 634              		.loc 1 213 5 is_stmt 1 view .LVU152
 635              		.loc 1 213 48 is_stmt 0 view .LVU153
 636 0082 9DF81C10 		ldrb	r1, [sp, #28]	@ zero_extendqisi2
 637              		.loc 1 213 68 view .LVU154
 638 0086 9DF81D20 		ldrb	r2, [sp, #29]	@ zero_extendqisi2
 639              		.loc 1 213 30 view .LVU155
 640 008a 42EA0122 		orr	r2, r2, r1, lsl #8
 641              		.loc 1 213 28 view .LVU156
 642 008e A284     		strh	r2, [r4, #36]	@ movhi
 214:mpu6050/mpu6050.c ****     
 215:mpu6050/mpu6050.c ****     //ÂáèÂéªÈõ∂È£ò
 216:mpu6050/mpu6050.c ****     // if(DataStruct->Devivation_Check_Flag)
 217:mpu6050/mpu6050.c ****     // {
 218:mpu6050/mpu6050.c ****     //     DataStruct->Gyro_X = DataStruct->Gyro_X_RAW - DataStruct->Gyro_X_RAW_Dev;
 219:mpu6050/mpu6050.c ****     //         DataStruct->Gyro_Y = DataStruct->Gyro_Y_RAW - DataStruct->Gyro_Y_RAW_Dev;
 220:mpu6050/mpu6050.c ****     //         DataStruct->Gyro_Z = DataStruct->Gyro_Z_RAW - DataStruct->Gyro_Z_RAW_Dev;
 221:mpu6050/mpu6050.c ****     // }
 222:mpu6050/mpu6050.c **** 	//3.ËΩ¨Êç¢Ëß£ÊûêÂêéÁöÑÊï∞ÊçÆÔºö  ÂéüÂßãÊï∞ÊçÆ --> ÂÆûÈôÖÊÑè‰πâÊï∞ÊçÆ
 223:mpu6050/mpu6050.c **** 	
 224:mpu6050/mpu6050.c ****     // Â∞ÜÂéüÂßãÂä†ÈÄüÂ∫¶ËÆ°Êï∞ÊçÆ ---> ‰ª• "g" ‰∏∫Âçï‰ΩçÁöÑÂä†ÈÄüÂ∫¶ÂÄº
 225:mpu6050/mpu6050.c ****     DataStruct->Ax = DataStruct->Accel_X_RAW/32768.0f*2.0f;
 643              		.loc 1 225 5 is_stmt 1 view .LVU157
 644              		.loc 1 225 45 is_stmt 0 view .LVU158
 645 0090 07EE903A 		vmov	s15, r3	@ int
 646 0094 F8EEE77A 		vcvt.f32.s32	s15, s15
 647 0098 9FED368A 		vldr.32	s16, .L22+4
 648 009c 67EE887A 		vmul.f32	s15, s15, s16
 649              		.loc 1 225 54 view .LVU159
 650 00a0 77EEA77A 		vadd.f32	s15, s15, s15
 651 00a4 17EE900A 		vmov	r0, s15
 652 00a8 FFF7FEFF 		bl	__aeabi_f2d
 653              	.LVL36:
 654              		.loc 1 225 20 view .LVU160
 655 00ac C4E90201 		strd	r0, [r4, #8]
 226:mpu6050/mpu6050.c ****     DataStruct->Ay = DataStruct->Accel_Y_RAW/32768.0f*2.0f;
 656              		.loc 1 226 5 is_stmt 1 view .LVU161
 657              		.loc 1 226 45 is_stmt 0 view .LVU162
 658 00b0 07EE906A 		vmov	s15, r6	@ int
 659 00b4 F8EEE77A 		vcvt.f32.s32	s15, s15
 660 00b8 67EE887A 		vmul.f32	s15, s15, s16
 661              		.loc 1 226 54 view .LVU163
 662 00bc 77EEA77A 		vadd.f32	s15, s15, s15
 663 00c0 17EE900A 		vmov	r0, s15
 664 00c4 FFF7FEFF 		bl	__aeabi_f2d
 665              	.LVL37:
 666              		.loc 1 226 20 view .LVU164
 667 00c8 C4E90401 		strd	r0, [r4, #16]
 227:mpu6050/mpu6050.c ****     DataStruct->Az = DataStruct->Accel_Z_RAW/32768.0f*2.0f;
 668              		.loc 1 227 5 is_stmt 1 view .LVU165
 669              		.loc 1 227 45 is_stmt 0 view .LVU166
 670 00cc 07EE905A 		vmov	s15, r5	@ int
 671 00d0 F8EEE77A 		vcvt.f32.s32	s15, s15
 672 00d4 67EE887A 		vmul.f32	s15, s15, s16
 673              		.loc 1 227 54 view .LVU167
ARM GAS  /tmp/ccWaMcpH.s 			page 17


 674 00d8 77EEA77A 		vadd.f32	s15, s15, s15
 675 00dc 17EE900A 		vmov	r0, s15
 676 00e0 FFF7FEFF 		bl	__aeabi_f2d
 677              	.LVL38:
 678              		.loc 1 227 20 view .LVU168
 679 00e4 C4E90601 		strd	r0, [r4, #24]
 228:mpu6050/mpu6050.c **** 	//DataStruct->Az = DataStruct->Accel_Z_RAW / Accel_Z_corrector;
 229:mpu6050/mpu6050.c ****     // Â∞ÜÂéüÂßãÊ∏©Â∫¶Êï∞ÊçÆ ---> ÊëÑÊ∞èÊ∏©Â∫¶
 230:mpu6050/mpu6050.c ****     DataStruct->Temperature = (float)((int16_t)temp / (float)340.0 + (float)36.53);
 680              		.loc 1 230 5 is_stmt 1 view .LVU169
 681              		.loc 1 230 53 is_stmt 0 view .LVU170
 682 00e8 07EE907A 		vmov	s15, r7	@ int
 683 00ec B8EEE77A 		vcvt.f32.s32	s14, s15
 684 00f0 DFED216A 		vldr.32	s13, .L22+8
 685 00f4 C7EE267A 		vdiv.f32	s15, s14, s13
 686              		.loc 1 230 31 view .LVU171
 687 00f8 9FED207A 		vldr.32	s14, .L22+12
 688 00fc 77EE877A 		vadd.f32	s15, s15, s14
 689              		.loc 1 230 29 view .LVU172
 690 0100 C4ED147A 		vstr.32	s15, [r4, #80]
 231:mpu6050/mpu6050.c ****     // Â∞ÜÂéüÂßãÈôÄËû∫‰ª™Êï∞ÊçÆ ---> ËßíÈÄüÂ∫¶(‰ª• "Â∫¶ÊØèÁßí (dps)" ‰∏∫Âçï‰Ωç
 232:mpu6050/mpu6050.c **** 		/*
 233:mpu6050/mpu6050.c ****     DataStruct->Gx = DataStruct->Gyro_X_RAW/32768.0f*2000.0f;
 234:mpu6050/mpu6050.c ****     DataStruct->Gy = DataStruct->Gyro_Y_RAW/32768.0f*2000.0f;
 235:mpu6050/mpu6050.c ****     DataStruct->Gz = DataStruct->Gyro_Z_RAW/32768.0f*2000.0f;
 236:mpu6050/mpu6050.c **** 		*/
 237:mpu6050/mpu6050.c ****     DataStruct->Gx = DataStruct->Gyro_X/32768.0f*2000.0f;
 691              		.loc 1 237 5 is_stmt 1 view .LVU173
 692              		.loc 1 237 32 is_stmt 0 view .LVU174
 693 0104 B4F92630 		ldrsh	r3, [r4, #38]
 694 0108 07EE903A 		vmov	s15, r3	@ int
 695              		.loc 1 237 40 view .LVU175
 696 010c F8EEE77A 		vcvt.f32.s32	s15, s15
 697 0110 67EE887A 		vmul.f32	s15, s15, s16
 698              		.loc 1 237 49 view .LVU176
 699 0114 DFED1A8A 		vldr.32	s17, .L22+16
 700 0118 67EEA87A 		vmul.f32	s15, s15, s17
 701 011c 17EE900A 		vmov	r0, s15
 702 0120 FFF7FEFF 		bl	__aeabi_f2d
 703              	.LVL39:
 704              		.loc 1 237 20 view .LVU177
 705 0124 C4E90E01 		strd	r0, [r4, #56]
 238:mpu6050/mpu6050.c ****     DataStruct->Gy = DataStruct->Gyro_Y/32768.0f*2000.0f;
 706              		.loc 1 238 5 is_stmt 1 view .LVU178
 707              		.loc 1 238 32 is_stmt 0 view .LVU179
 708 0128 B4F92830 		ldrsh	r3, [r4, #40]
 709 012c 07EE903A 		vmov	s15, r3	@ int
 710              		.loc 1 238 40 view .LVU180
 711 0130 F8EEE77A 		vcvt.f32.s32	s15, s15
 712 0134 67EE887A 		vmul.f32	s15, s15, s16
 713              		.loc 1 238 49 view .LVU181
 714 0138 67EEA87A 		vmul.f32	s15, s15, s17
 715 013c 17EE900A 		vmov	r0, s15
 716 0140 FFF7FEFF 		bl	__aeabi_f2d
 717              	.LVL40:
 718              		.loc 1 238 20 view .LVU182
 719 0144 C4E91001 		strd	r0, [r4, #64]
ARM GAS  /tmp/ccWaMcpH.s 			page 18


 239:mpu6050/mpu6050.c ****     DataStruct->Gz = DataStruct->Gyro_Z/32768.0f*2000.0f;
 720              		.loc 1 239 5 is_stmt 1 view .LVU183
 721              		.loc 1 239 32 is_stmt 0 view .LVU184
 722 0148 B4F92A30 		ldrsh	r3, [r4, #42]
 723 014c 07EE903A 		vmov	s15, r3	@ int
 724              		.loc 1 239 40 view .LVU185
 725 0150 F8EEE77A 		vcvt.f32.s32	s15, s15
 726 0154 67EE887A 		vmul.f32	s15, s15, s16
 727              		.loc 1 239 49 view .LVU186
 728 0158 67EEA87A 		vmul.f32	s15, s15, s17
 729 015c 17EE900A 		vmov	r0, s15
 730 0160 FFF7FEFF 		bl	__aeabi_f2d
 731              	.LVL41:
 732              		.loc 1 239 20 view .LVU187
 733 0164 C4E91201 		strd	r0, [r4, #72]
 240:mpu6050/mpu6050.c **** }
 734              		.loc 1 240 1 view .LVU188
 735 0168 09B0     		add	sp, sp, #36
 736              	.LCFI18:
 737              		.cfi_def_cfa_offset 28
 738              		@ sp needed
 739 016a BDEC028B 		vldm	sp!, {d8}
 740              	.LCFI19:
 741              		.cfi_restore 80
 742              		.cfi_restore 81
 743              		.cfi_def_cfa_offset 20
 744 016e F0BD     		pop	{r4, r5, r6, r7, pc}
 745              	.LVL42:
 746              	.L23:
 747              		.loc 1 240 1 view .LVU189
 748              		.align	2
 749              	.L22:
 750 0170 00000000 		.word	test
 751 0174 00000038 		.word	939524096
 752 0178 0000AA43 		.word	1135214592
 753 017c B81E1242 		.word	1108483768
 754 0180 0000FA44 		.word	1157234688
 755              		.cfi_endproc
 756              	.LFE138:
 758              		.global	__aeabi_dsub
 759              		.global	__aeabi_dadd
 760              		.section	.text.Kalman_getAngle,"ax",%progbits
 761              		.align	1
 762              		.global	Kalman_getAngle
 763              		.syntax unified
 764              		.thumb
 765              		.thumb_func
 767              	Kalman_getAngle:
 768              	.LVL43:
 769              	.LFB140:
 241:mpu6050/mpu6050.c **** 
 242:mpu6050/mpu6050.c **** //Âç°Â∞îÊõºÊª§Ê≥¢Êõ¥Êñ∞ËßíÂ∫¶
 243:mpu6050/mpu6050.c **** void MPU6050_GetAngle(MPU6050_t *DataStruct)
 244:mpu6050/mpu6050.c **** {
 245:mpu6050/mpu6050.c ****     // ËÆ°ÁÆóÊó∂Èó¥Â¢ûÈáè dtÔºåÂçï‰Ωç‰∏∫Áßí
 246:mpu6050/mpu6050.c ****     double dt = (double)(HAL_GetTick() - mpu_timer) / 1000;  // Ëé∑ÂèñÊó∂Èó¥Â∑ÆÔºàÊØ´ÁßíÔºâÔºåËΩ¨Êç
 247:mpu6050/mpu6050.c ****     mpu_timer = HAL_GetTick();  // Êõ¥Êñ∞ËÆ°Êó∂Âô®
ARM GAS  /tmp/ccWaMcpH.s 			page 19


 248:mpu6050/mpu6050.c **** 	  // ËÆ°ÁÆóÊªöËΩ¨Ëßí roll
 249:mpu6050/mpu6050.c ****     double roll;  // Áî®‰∫éÂ≠òÂÇ®ËÆ°ÁÆóÂæóÂà∞ÁöÑÊªöËΩ¨ËßíÔºàX ËΩ¥Ôºâ
 250:mpu6050/mpu6050.c ****     double roll_sqrt = sqrt(DataStruct->Accel_X_RAW * DataStruct->Accel_X_RAW + DataStruct->Accel_Z
 251:mpu6050/mpu6050.c ****     if (roll_sqrt != 0.0)
 252:mpu6050/mpu6050.c ****     {
 253:mpu6050/mpu6050.c ****         roll = atan(DataStruct->Accel_Y_RAW / roll_sqrt) * RAD_TO_DEG;  // ÂÖàËÆ°ÁÆóÂá∫ÂºßÂ∫¶Âà∂ ro
 254:mpu6050/mpu6050.c ****     }
 255:mpu6050/mpu6050.c ****     else
 256:mpu6050/mpu6050.c ****     {
 257:mpu6050/mpu6050.c ****         roll = 0.0;
 258:mpu6050/mpu6050.c ****     }
 259:mpu6050/mpu6050.c **** 	
 260:mpu6050/mpu6050.c **** 	  // ËÆ°ÁÆó‰øØ‰ª∞Ëßí pitch
 261:mpu6050/mpu6050.c ****     double pitch = atan2(-DataStruct->Accel_X_RAW, DataStruct->Accel_Z_RAW) * RAD_TO_DEG;
 262:mpu6050/mpu6050.c **** 
 263:mpu6050/mpu6050.c ****     // Â¶ÇÊûú‰øØ‰ª∞ËßíÂ∫¶ÂèòÂåñËøáÂø´(Ë∂ÖËøá90Â∫¶)ÔºåÈò≤Ê≠¢ËßíÂ∫¶Ë∑≥Âèò
 264:mpu6050/mpu6050.c ****     if ((pitch < -90 && DataStruct->KalmanAngleY > 90) || (pitch > 90 && DataStruct->KalmanAngleY <
 265:mpu6050/mpu6050.c ****     {
 266:mpu6050/mpu6050.c ****         KalmanY.angle = pitch; 
 267:mpu6050/mpu6050.c ****         DataStruct->KalmanAngleY = pitch;
 268:mpu6050/mpu6050.c ****     }
 269:mpu6050/mpu6050.c ****     else
 270:mpu6050/mpu6050.c ****     {
 271:mpu6050/mpu6050.c ****         // Âç°Â∞îÊõºÊª§Ê≥¢Âô®Êõ¥Êñ∞‰øØ‰ª∞ËßíÂ∫¶ Y
 272:mpu6050/mpu6050.c ****         DataStruct->KalmanAngleY = Kalman_getAngle(&KalmanY, pitch, DataStruct->Gy, dt);
 273:mpu6050/mpu6050.c ****     }
 274:mpu6050/mpu6050.c **** 
 275:mpu6050/mpu6050.c ****     // Â¶ÇÊûú‰øØ‰ª∞ËßíÁªùÂØπÂÄºË∂ÖËøá 90 Â∫¶ÔºåÂàôÂèçËΩ¨ X ËΩ¥ÁöÑÈôÄËû∫‰ª™ËßíÈÄüÂ∫¶ÔºåÈò≤Ê≠¢Á¨¶Âè∑È
 276:mpu6050/mpu6050.c ****     if (fabs(DataStruct->KalmanAngleY) > 90)
 277:mpu6050/mpu6050.c ****         DataStruct->Gx = -DataStruct->Gx;
 278:mpu6050/mpu6050.c **** 
 279:mpu6050/mpu6050.c ****     // Âç°Â∞îÊõºÊª§Ê≥¢Âô®Êõ¥Êñ∞ÊªöËΩ¨ËßíÂ∫¶ X
 280:mpu6050/mpu6050.c ****     DataStruct->KalmanAngleX = Kalman_getAngle(&KalmanX, roll, DataStruct->Gx, dt);
 281:mpu6050/mpu6050.c **** 		
 282:mpu6050/mpu6050.c **** 		
 283:mpu6050/mpu6050.c **** 		//ËÆ°ÁÆóÂÅèÂ•ΩËßí
 284:mpu6050/mpu6050.c **** 		//90  2080   
 285:mpu6050/mpu6050.c **** 		if(abs_int16(DataStruct->Gz)>0.4)
 286:mpu6050/mpu6050.c **** 		{
 287:mpu6050/mpu6050.c **** 		  MPU6050.Yaw_360 -= DataStruct->Gz/100.0f;
 288:mpu6050/mpu6050.c **** 			MPU6050.Yaw_8192 = MPU6050.Yaw_360*22.7555555556f;
 289:mpu6050/mpu6050.c **** 		}
 290:mpu6050/mpu6050.c **** }
 291:mpu6050/mpu6050.c **** 
 292:mpu6050/mpu6050.c **** 
 293:mpu6050/mpu6050.c **** 
 294:mpu6050/mpu6050.c **** /**
 295:mpu6050/mpu6050.c ****  * @brief ‰ΩøÁî®Âç°Â∞îÊõºÊª§Ê≥¢ÔºåËûçÂêàËßíÂ∫¶È¢ÑÊµãÂÄº‰∏éËßíÂ∫¶ÊµãÈáèÂÄºÔºåÂæóÂà∞ÊúÄ‰ºòËßíÂ∫¶ÂÄº
 296:mpu6050/mpu6050.c ****  * 
 297:mpu6050/mpu6050.c ****  * Âç°Â∞îÊõºÊª§Ê≥¢ÈÄöËøáÁªìÂêàÁ≥ªÁªüÁöÑÈ¢ÑÊµãÂÄºÂíåÊµãÈáèÂÄºÔºåÊù•‰øÆÊ≠£ËßíÂ∫¶ÂíåÂÅèÁΩÆÁöÑ‰º∞ËÆ°Ôºå
 298:mpu6050/mpu6050.c ****  * 
 299:mpu6050/mpu6050.c ****  * @param Kalman Âç°Â∞îÊõºÊª§Ê≥¢Âô®ÁªìÊûÑ‰ΩìÊåáÈíàÔºåÂåÖÂê´È¢ÑÊµãËßíÂ∫¶„ÄÅÈ¢ÑÊµãÂÅèÁΩÆ„ÄÅËßíÂ∫¶ÂçèÊ
 300:mpu6050/mpu6050.c ****  * @param newAngle ËßíÂ∫¶ÊµãÈáèÂÄºÔºàËØªÂèñÂä†ÈÄüÂ∫¶ËÆ°ÁöÑ‰∏âËΩ¥Âä†ÈÄüÂ∫¶ÂàÜÈáèÔºåÂÜçËÆ°ÁÆóÂèçÊ≠£Âà
 301:mpu6050/mpu6050.c ****  * @param newRate ËßíÈÄüÂ∫¶‚ÄúÂÆûÈôÖ‚ÄúÂÄºÔºà‰ªñÂè™ÊòØÂèØ‰ª•Áúã‰ΩúËßíÈÄüÂ∫¶ÂÆûÈôÖÂÄºÔºåÂÆûÈôÖ‰∏äÊòØ
 302:mpu6050/mpu6050.c ****  * @param dt Êó∂Èó¥Èó¥ÈöîÔºå‰∏§‰∏™‰º†ÊÑüÂô®Êï∞ÊçÆÈááÊ†∑‰πãÈó¥ÁöÑÊó∂Èó¥Â∑ÆÔºàÁßíÔºâ
 303:mpu6050/mpu6050.c ****  * @return double Êª§Ê≥¢ÂêéÁöÑÊúÄ‰ºòËßíÂ∫¶ÂÄº
 304:mpu6050/mpu6050.c ****  */
ARM GAS  /tmp/ccWaMcpH.s 			page 20


 305:mpu6050/mpu6050.c **** 
 306:mpu6050/mpu6050.c **** double Kalman_getAngle(Kalman_t *Kalman, double newAngle, double newRate, double dt)
 307:mpu6050/mpu6050.c **** {
 770              		.loc 1 307 1 is_stmt 1 view -0
 771              		.cfi_startproc
 772              		@ args = 0, pretend = 0, frame = 40
 773              		@ frame_needed = 0, uses_anonymous_args = 0
 774              		.loc 1 307 1 is_stmt 0 view .LVU191
 775 0000 2DE9F047 		push	{r4, r5, r6, r7, r8, r9, r10, lr}
 776              	.LCFI20:
 777              		.cfi_def_cfa_offset 32
 778              		.cfi_offset 4, -32
 779              		.cfi_offset 5, -28
 780              		.cfi_offset 6, -24
 781              		.cfi_offset 7, -20
 782              		.cfi_offset 8, -16
 783              		.cfi_offset 9, -12
 784              		.cfi_offset 10, -8
 785              		.cfi_offset 14, -4
 786 0004 2DED088B 		vpush.64	{d8, d9, d10, d11}
 787              	.LCFI21:
 788              		.cfi_def_cfa_offset 64
 789              		.cfi_offset 80, -64
 790              		.cfi_offset 81, -60
 791              		.cfi_offset 82, -56
 792              		.cfi_offset 83, -52
 793              		.cfi_offset 84, -48
 794              		.cfi_offset 85, -44
 795              		.cfi_offset 86, -40
 796              		.cfi_offset 87, -36
 797 0008 8AB0     		sub	sp, sp, #40
 798              	.LCFI22:
 799              		.cfi_def_cfa_offset 104
 800 000a 8246     		mov	r10, r0
 801 000c 8DED020B 		vstr.64	d0, [sp, #8]
 802 0010 51EC110B 		vmov	r0, r1, d1
 803              	.LVL44:
 804              		.loc 1 307 1 view .LVU192
 805 0014 55EC124B 		vmov	r4, r5, d2
 308:mpu6050/mpu6050.c **** /*---------------------È¢ÑÊµãÈò∂ÊÆµ--------------------------*/
 309:mpu6050/mpu6050.c **** 
 310:mpu6050/mpu6050.c ****     // 1. È¢ÑÊµãËßíÂ∫¶
 311:mpu6050/mpu6050.c ****     // ËßíÈÄüÂ∫¶ = ÈôÄËû∫‰ª™ËßíÈÄüÂ∫¶ - ÈôÄËû∫‰ª™ÂÅèÁΩÆÂÄº (ÂæóÂà∞Êó†ÂÅèËßíÈÄüÂ∫¶)
 312:mpu6050/mpu6050.c ****     double rate = newRate - Kalman->bias;
 806              		.loc 1 312 5 is_stmt 1 view .LVU193
 807              		.loc 1 312 35 is_stmt 0 view .LVU194
 808 0018 9AED087B 		vldr.64	d7, [r10, #32]
 809 001c B0EE47BA 		vmov.f32	s22, s14
 810 0020 F0EE67BA 		vmov.f32	s23, s15
 811              		.loc 1 312 12 view .LVU195
 812 0024 53EC172B 		vmov	r2, r3, d7
 813 0028 FFF7FEFF 		bl	__aeabi_dsub
 814              	.LVL45:
 313:mpu6050/mpu6050.c ****     // È¢ÑÊµãËßíÂ∫¶ = Ââç‰∏ÄÊó∂ÂàªËßíÈÄü + Êó∂Èó¥Èó¥Èöî*ËßíÈÄüÂ∫¶
 314:mpu6050/mpu6050.c ****     Kalman->angle += dt * rate;
 815              		.loc 1 314 5 is_stmt 1 view .LVU196
 816              		.loc 1 314 11 is_stmt 0 view .LVU197
ARM GAS  /tmp/ccWaMcpH.s 			page 21


 817 002c DAE90667 		ldrd	r6, [r10, #24]
 818              		.loc 1 314 25 view .LVU198
 819 0030 2246     		mov	r2, r4
 820 0032 2B46     		mov	r3, r5
 821 0034 FFF7FEFF 		bl	__aeabi_dmul
 822              	.LVL46:
 823              		.loc 1 314 25 view .LVU199
 824 0038 0246     		mov	r2, r0
 825 003a 0B46     		mov	r3, r1
 826              		.loc 1 314 19 view .LVU200
 827 003c 3046     		mov	r0, r6
 828 003e 3946     		mov	r1, r7
 829 0040 FFF7FEFF 		bl	__aeabi_dadd
 830              	.LVL47:
 831 0044 41EC180B 		vmov	d8, r0, r1
 832 0048 CAE90601 		strd	r0, [r10, #24]
 315:mpu6050/mpu6050.c **** 
 316:mpu6050/mpu6050.c ****     // 2. È¢ÑÊµãÂçèÊñπÂ∑ÆÁü©Èòµ
 317:mpu6050/mpu6050.c ****     Kalman->P[0][0] += dt * (dt * Kalman->P[1][1] - Kalman->P[0][1] - Kalman->P[1][0] + Kalman->Q_a
 833              		.loc 1 317 5 is_stmt 1 view .LVU201
 834              		.loc 1 317 17 is_stmt 0 view .LVU202
 835 004c DAE90A89 		ldrd	r8, [r10, #40]
 836              		.loc 1 317 47 view .LVU203
 837 0050 9AED10AB 		vldr.64	d10, [r10, #64]
 838              		.loc 1 317 33 view .LVU204
 839 0054 2246     		mov	r2, r4
 840 0056 2B46     		mov	r3, r5
 841 0058 51EC1A0B 		vmov	r0, r1, d10
 842 005c FFF7FEFF 		bl	__aeabi_dmul
 843              	.LVL48:
 844 0060 0646     		mov	r6, r0
 845 0062 0F46     		mov	r7, r1
 846 0064 CDE90067 		strd	r6, [sp]
 847              		.loc 1 317 65 view .LVU205
 848 0068 9AED0C6B 		vldr.64	d6, [r10, #48]
 849 006c B0EE469A 		vmov.f32	s18, s12
 850 0070 F0EE669A 		vmov.f32	s19, s13
 851              		.loc 1 317 51 view .LVU206
 852 0074 53EC162B 		vmov	r2, r3, d6
 853 0078 FFF7FEFF 		bl	__aeabi_dsub
 854              	.LVL49:
 855              		.loc 1 317 83 view .LVU207
 856 007c DAE90E67 		ldrd	r6, [r10, #56]
 857              		.loc 1 317 69 view .LVU208
 858 0080 3246     		mov	r2, r6
 859 0082 3B46     		mov	r3, r7
 860 0084 FFF7FEFF 		bl	__aeabi_dsub
 861              	.LVL50:
 862              		.loc 1 317 87 view .LVU209
 863 0088 DAE90023 		ldrd	r2, [r10]
 864 008c FFF7FEFF 		bl	__aeabi_dadd
 865              	.LVL51:
 866              		.loc 1 317 27 view .LVU210
 867 0090 2246     		mov	r2, r4
 868 0092 2B46     		mov	r3, r5
 869 0094 FFF7FEFF 		bl	__aeabi_dmul
 870              	.LVL52:
ARM GAS  /tmp/ccWaMcpH.s 			page 22


 871 0098 0246     		mov	r2, r0
 872 009a 0B46     		mov	r3, r1
 873              		.loc 1 317 21 view .LVU211
 874 009c 4046     		mov	r0, r8
 875 009e 4946     		mov	r1, r9
 876 00a0 FFF7FEFF 		bl	__aeabi_dadd
 877              	.LVL53:
 878 00a4 8046     		mov	r8, r0
 879 00a6 8946     		mov	r9, r1
 880 00a8 CAE90A89 		strd	r8, [r10, #40]
 318:mpu6050/mpu6050.c ****     Kalman->P[0][1] -= dt * Kalman->P[1][1];  // È¢ÑÊµãËßíÂ∫¶ÂíåÂÅèÁΩÆÁöÑÂçèÊñπÂ∑Æ
 881              		.loc 1 318 5 is_stmt 1 view .LVU212
 882              		.loc 1 318 21 is_stmt 0 view .LVU213
 883 00ac DDE90023 		ldrd	r2, [sp]
 884 00b0 51EC190B 		vmov	r0, r1, d9
 885 00b4 FFF7FEFF 		bl	__aeabi_dsub
 886              	.LVL54:
 887 00b8 0A46     		mov	r2, r1
 888 00ba 0146     		mov	r1, r0
 889 00bc CDE90412 		strd	r1, [sp, #16]
 890 00c0 42EC161B 		vmov	d6, r1, r2
 891 00c4 8AED0C6B 		vstr.64	d6, [r10, #48]
 319:mpu6050/mpu6050.c ****     Kalman->P[1][0] -= dt * Kalman->P[1][1];  // È¢ÑÊµãÂÅèÁΩÆÂíåËßíÂ∫¶ÁöÑÂçèÊñπÂ∑Æ
 892              		.loc 1 319 5 is_stmt 1 view .LVU214
 893              		.loc 1 319 21 is_stmt 0 view .LVU215
 894 00c8 DDE90023 		ldrd	r2, [sp]
 895 00cc 3046     		mov	r0, r6
 896 00ce 3946     		mov	r1, r7
 897 00d0 FFF7FEFF 		bl	__aeabi_dsub
 898              	.LVL55:
 899 00d4 41EC190B 		vmov	d9, r0, r1
 900 00d8 CAE90E01 		strd	r0, [r10, #56]
 320:mpu6050/mpu6050.c ****     Kalman->P[1][1] += Kalman->Q_bias * dt;   // È¢ÑÊµãÂÅèÁΩÆÂçèÊñπÂ∑Æ
 901              		.loc 1 320 5 is_stmt 1 view .LVU216
 902              		.loc 1 320 39 is_stmt 0 view .LVU217
 903 00dc 2246     		mov	r2, r4
 904 00de 2B46     		mov	r3, r5
 905 00e0 DAE90201 		ldrd	r0, [r10, #8]
 906 00e4 FFF7FEFF 		bl	__aeabi_dmul
 907              	.LVL56:
 908 00e8 0246     		mov	r2, r0
 909 00ea 0B46     		mov	r3, r1
 910              		.loc 1 320 21 view .LVU218
 911 00ec 51EC1A0B 		vmov	r0, r1, d10
 912 00f0 FFF7FEFF 		bl	__aeabi_dadd
 913              	.LVL57:
 914 00f4 41EC1A0B 		vmov	d10, r0, r1
 915 00f8 CAE91001 		strd	r0, [r10, #64]
 321:mpu6050/mpu6050.c **** 
 322:mpu6050/mpu6050.c **** 
 323:mpu6050/mpu6050.c **** /*---------------------Êõ¥Êñ∞Èò∂ÊÆµ--------------------------*/
 324:mpu6050/mpu6050.c **** 
 325:mpu6050/mpu6050.c ****     // 3. Êõ¥Êñ∞Âç°Â∞îÊõºÂ¢ûÁõä
 326:mpu6050/mpu6050.c ****     // ÊÄªËØØÂ∑ÆÂçèÊñπÂ∑Æ = È¢ÑÊµãÂçèÊñπÂ∑Æ + ÊµãÈáèÂô™Â£∞ÂçèÊñπÂ∑Æ
 327:mpu6050/mpu6050.c ****     double S = Kalman->P[0][0] + Kalman->R_measure;
 916              		.loc 1 327 5 is_stmt 1 view .LVU219
 917              		.loc 1 327 12 is_stmt 0 view .LVU220
ARM GAS  /tmp/ccWaMcpH.s 			page 23


 918 00fc DAE90423 		ldrd	r2, [r10, #16]
 919 0100 4046     		mov	r0, r8
 920 0102 4946     		mov	r1, r9
 921 0104 FFF7FEFF 		bl	__aeabi_dadd
 922              	.LVL58:
 923 0108 0446     		mov	r4, r0
 924              	.LVL59:
 925              		.loc 1 327 12 view .LVU221
 926 010a 0D46     		mov	r5, r1
 927              	.LVL60:
 328:mpu6050/mpu6050.c ****     // Âç°Â∞îÊõºÂ¢ûÁõä K
 329:mpu6050/mpu6050.c ****     double K[2]; 
 928              		.loc 1 329 5 is_stmt 1 view .LVU222
 330:mpu6050/mpu6050.c ****     K[0] = Kalman->P[0][0] / S;  // ËßíÂ∫¶ÁöÑÂç°Â∞îÊõºÂ¢ûÁõä
 929              		.loc 1 330 5 view .LVU223
 930              		.loc 1 330 28 is_stmt 0 view .LVU224
 931 010c 0246     		mov	r2, r0
 932 010e 0B46     		mov	r3, r1
 933 0110 4046     		mov	r0, r8
 934 0112 4946     		mov	r1, r9
 935 0114 FFF7FEFF 		bl	__aeabi_ddiv
 936              	.LVL61:
 937 0118 0646     		mov	r6, r0
 938 011a 0F46     		mov	r7, r1
 939              		.loc 1 330 10 view .LVU225
 940 011c CDE90667 		strd	r6, [sp, #24]
 331:mpu6050/mpu6050.c ****     K[1] = Kalman->P[1][0] / S;  // ÂÅèÁΩÆÁöÑÂç°Â∞îÊõºÂ¢ûÁõä
 941              		.loc 1 331 5 is_stmt 1 view .LVU226
 942              		.loc 1 331 28 is_stmt 0 view .LVU227
 943 0120 2246     		mov	r2, r4
 944 0122 2B46     		mov	r3, r5
 945 0124 51EC190B 		vmov	r0, r1, d9
 946 0128 FFF7FEFF 		bl	__aeabi_ddiv
 947              	.LVL62:
 948 012c 0446     		mov	r4, r0
 949              	.LVL63:
 950              		.loc 1 331 28 view .LVU228
 951 012e 0D46     		mov	r5, r1
 952              		.loc 1 331 10 view .LVU229
 953 0130 CDE90845 		strd	r4, [sp, #32]
 332:mpu6050/mpu6050.c **** 
 333:mpu6050/mpu6050.c ****     // 4. Êõ¥Êñ∞ËßíÂ∫¶ÂíåÂÅèÁΩÆ
 334:mpu6050/mpu6050.c ****     // ÊµãÈáèÊÆãÂ∑Æ = ÊµãÈáèÂÄº - È¢ÑÊµãÂÄº
 335:mpu6050/mpu6050.c ****     double y = newAngle - Kalman->angle;
 954              		.loc 1 335 5 is_stmt 1 view .LVU230
 955              		.loc 1 335 12 is_stmt 0 view .LVU231
 956 0134 53EC182B 		vmov	r2, r3, d8
 957 0138 DDE90201 		ldrd	r0, [sp, #8]
 958 013c FFF7FEFF 		bl	__aeabi_dsub
 959              	.LVL64:
 960 0140 0246     		mov	r2, r0
 961 0142 0B46     		mov	r3, r1
 962              	.LVL65:
 336:mpu6050/mpu6050.c ****     // Ê†πÊçÆÂç°Â∞îÊõºÂ¢ûÁõäÔºåÊõ¥Êñ∞ËßíÂ∫¶ÂíåÂÅèÁΩÆÁöÑ‰º∞ËÆ°ÂÄºÔºå‰øÆÊ≠£È¢ÑÊµãÈò∂ÊÆµÁöÑËØØÂ∑Æ
 337:mpu6050/mpu6050.c ****     Kalman->angle += K[0] * y;  // Êõ¥Êñ∞ËßíÂ∫¶‰º∞ËÆ°„ÄÇ
 963              		.loc 1 337 5 is_stmt 1 view .LVU232
 964              		.loc 1 337 27 is_stmt 0 view .LVU233
ARM GAS  /tmp/ccWaMcpH.s 			page 24


 965 0144 CDE90023 		strd	r2, [sp]
 966 0148 3046     		mov	r0, r6
 967 014a 3946     		mov	r1, r7
 968 014c FFF7FEFF 		bl	__aeabi_dmul
 969              	.LVL66:
 970              		.loc 1 337 27 view .LVU234
 971 0150 0246     		mov	r2, r0
 972 0152 0B46     		mov	r3, r1
 973              		.loc 1 337 19 view .LVU235
 974 0154 51EC180B 		vmov	r0, r1, d8
 975 0158 FFF7FEFF 		bl	__aeabi_dadd
 976              	.LVL67:
 977 015c 41EC180B 		vmov	d8, r0, r1
 978 0160 CAE90601 		strd	r0, [r10, #24]
 338:mpu6050/mpu6050.c ****     Kalman->bias += K[1] * y;   // Êõ¥Êñ∞ÂÅèÁΩÆ‰º∞ËÆ°
 979              		.loc 1 338 5 is_stmt 1 view .LVU236
 980              		.loc 1 338 26 is_stmt 0 view .LVU237
 981 0164 DDE90023 		ldrd	r2, [sp]
 982 0168 2046     		mov	r0, r4
 983 016a 2946     		mov	r1, r5
 984 016c FFF7FEFF 		bl	__aeabi_dmul
 985              	.LVL68:
 986 0170 0246     		mov	r2, r0
 987 0172 0B46     		mov	r3, r1
 988              		.loc 1 338 18 view .LVU238
 989 0174 51EC1B0B 		vmov	r0, r1, d11
 990 0178 FFF7FEFF 		bl	__aeabi_dadd
 991              	.LVL69:
 992 017c CAE90801 		strd	r0, [r10, #32]
 339:mpu6050/mpu6050.c **** 
 340:mpu6050/mpu6050.c ****     // 5. Êõ¥Êñ∞ÂçèÊñπÂ∑ÆÁü©Èòµ P
 341:mpu6050/mpu6050.c ****     double P00_temp = Kalman->P[0][0];
 993              		.loc 1 341 5 is_stmt 1 view .LVU239
 994              	.LVL70:
 342:mpu6050/mpu6050.c ****     double P01_temp = Kalman->P[0][1];
 995              		.loc 1 342 5 view .LVU240
 343:mpu6050/mpu6050.c ****     Kalman->P[0][0] -= K[0] * P00_temp;  // Êõ¥Êñ∞ËßíÂ∫¶ÂçèÊñπÂ∑Æ
 996              		.loc 1 343 5 view .LVU241
 997              		.loc 1 343 29 is_stmt 0 view .LVU242
 998 0180 3246     		mov	r2, r6
 999 0182 3B46     		mov	r3, r7
 1000 0184 4046     		mov	r0, r8
 1001 0186 4946     		mov	r1, r9
 1002 0188 FFF7FEFF 		bl	__aeabi_dmul
 1003              	.LVL71:
 1004 018c 0246     		mov	r2, r0
 1005 018e 0B46     		mov	r3, r1
 1006              		.loc 1 343 21 view .LVU243
 1007 0190 4046     		mov	r0, r8
 1008 0192 4946     		mov	r1, r9
 1009 0194 FFF7FEFF 		bl	__aeabi_dsub
 1010              	.LVL72:
 1011 0198 CAE90A01 		strd	r0, [r10, #40]
 344:mpu6050/mpu6050.c ****     Kalman->P[0][1] -= K[0] * P01_temp;  // Êõ¥Êñ∞ËßíÂ∫¶ÂíåÂÅèÁΩÆÁöÑÂçèÊñπÂ∑Æ
 1012              		.loc 1 344 5 is_stmt 1 view .LVU244
 1013              		.loc 1 344 29 is_stmt 0 view .LVU245
 1014 019c 3246     		mov	r2, r6
ARM GAS  /tmp/ccWaMcpH.s 			page 25


 1015 019e 3B46     		mov	r3, r7
 1016 01a0 DDE90467 		ldrd	r6, [sp, #16]
 1017 01a4 3046     		mov	r0, r6
 1018 01a6 3946     		mov	r1, r7
 1019 01a8 FFF7FEFF 		bl	__aeabi_dmul
 1020              	.LVL73:
 1021 01ac 0246     		mov	r2, r0
 1022 01ae 0B46     		mov	r3, r1
 1023              		.loc 1 344 21 view .LVU246
 1024 01b0 3046     		mov	r0, r6
 1025 01b2 3946     		mov	r1, r7
 1026 01b4 FFF7FEFF 		bl	__aeabi_dsub
 1027              	.LVL74:
 1028 01b8 CAE90C01 		strd	r0, [r10, #48]
 345:mpu6050/mpu6050.c ****     Kalman->P[1][0] -= K[1] * P00_temp;  // Êõ¥Êñ∞ÂÅèÁΩÆÂíåËßíÂ∫¶ÁöÑÂçèÊñπÂ∑Æ
 1029              		.loc 1 345 5 is_stmt 1 view .LVU247
 1030              		.loc 1 345 29 is_stmt 0 view .LVU248
 1031 01bc 2246     		mov	r2, r4
 1032 01be 2B46     		mov	r3, r5
 1033 01c0 4046     		mov	r0, r8
 1034 01c2 4946     		mov	r1, r9
 1035 01c4 FFF7FEFF 		bl	__aeabi_dmul
 1036              	.LVL75:
 1037 01c8 0246     		mov	r2, r0
 1038 01ca 0B46     		mov	r3, r1
 1039              		.loc 1 345 21 view .LVU249
 1040 01cc 51EC190B 		vmov	r0, r1, d9
 1041 01d0 FFF7FEFF 		bl	__aeabi_dsub
 1042              	.LVL76:
 1043 01d4 CAE90E01 		strd	r0, [r10, #56]
 346:mpu6050/mpu6050.c ****     Kalman->P[1][1] -= K[1] * P01_temp;  // Êõ¥Êñ∞ÂÅèÁΩÆÂçèÊñπÂ∑Æ
 1044              		.loc 1 346 5 is_stmt 1 view .LVU250
 1045              		.loc 1 346 29 is_stmt 0 view .LVU251
 1046 01d8 2246     		mov	r2, r4
 1047 01da 2B46     		mov	r3, r5
 1048 01dc 3046     		mov	r0, r6
 1049 01de 3946     		mov	r1, r7
 1050 01e0 FFF7FEFF 		bl	__aeabi_dmul
 1051              	.LVL77:
 1052 01e4 0246     		mov	r2, r0
 1053 01e6 0B46     		mov	r3, r1
 1054              		.loc 1 346 21 view .LVU252
 1055 01e8 51EC1A0B 		vmov	r0, r1, d10
 1056 01ec FFF7FEFF 		bl	__aeabi_dsub
 1057              	.LVL78:
 1058 01f0 CAE91001 		strd	r0, [r10, #64]
 347:mpu6050/mpu6050.c **** 
 348:mpu6050/mpu6050.c ****     // 6. ËøîÂõûÊª§Ê≥¢ÂêéÁöÑÊúÄ‰ºòËßíÂ∫¶ÂÄº
 349:mpu6050/mpu6050.c ****     return Kalman->angle;
 1059              		.loc 1 349 5 is_stmt 1 view .LVU253
 350:mpu6050/mpu6050.c **** };
 1060              		.loc 1 350 1 is_stmt 0 view .LVU254
 1061 01f4 B0EE480A 		vmov.f32	s0, s16
 1062 01f8 F0EE680A 		vmov.f32	s1, s17
 1063 01fc 0AB0     		add	sp, sp, #40
 1064              	.LCFI23:
 1065              		.cfi_def_cfa_offset 64
ARM GAS  /tmp/ccWaMcpH.s 			page 26


 1066              	.LVL79:
 1067              		.loc 1 350 1 view .LVU255
 1068              		@ sp needed
 1069 01fe BDEC088B 		vldm	sp!, {d8-d11}
 1070              	.LCFI24:
 1071              		.cfi_restore 86
 1072              		.cfi_restore 87
 1073              		.cfi_restore 84
 1074              		.cfi_restore 85
 1075              		.cfi_restore 82
 1076              		.cfi_restore 83
 1077              		.cfi_restore 80
 1078              		.cfi_restore 81
 1079              		.cfi_def_cfa_offset 32
 1080 0202 BDE8F087 		pop	{r4, r5, r6, r7, r8, r9, r10, pc}
 1081              		.loc 1 350 1 view .LVU256
 1082              		.cfi_endproc
 1083              	.LFE140:
 1085              		.global	__aeabi_ui2d
 1086              		.global	__aeabi_dcmpeq
 1087              		.global	__aeabi_dcmplt
 1088              		.global	__aeabi_dcmpgt
 1089              		.section	.text.MPU6050_GetAngle,"ax",%progbits
 1090              		.align	1
 1091              		.global	MPU6050_GetAngle
 1092              		.syntax unified
 1093              		.thumb
 1094              		.thumb_func
 1096              	MPU6050_GetAngle:
 1097              	.LVL80:
 1098              	.LFB139:
 244:mpu6050/mpu6050.c ****     // ËÆ°ÁÆóÊó∂Èó¥Â¢ûÈáè dtÔºåÂçï‰Ωç‰∏∫Áßí
 1099              		.loc 1 244 1 is_stmt 1 view -0
 1100              		.cfi_startproc
 1101              		@ args = 0, pretend = 0, frame = 0
 1102              		@ frame_needed = 0, uses_anonymous_args = 0
 244:mpu6050/mpu6050.c ****     // ËÆ°ÁÆóÊó∂Èó¥Â¢ûÈáè dtÔºåÂçï‰Ωç‰∏∫Áßí
 1103              		.loc 1 244 1 is_stmt 0 view .LVU258
 1104 0000 2DE9F041 		push	{r4, r5, r6, r7, r8, lr}
 1105              	.LCFI25:
 1106              		.cfi_def_cfa_offset 24
 1107              		.cfi_offset 4, -24
 1108              		.cfi_offset 5, -20
 1109              		.cfi_offset 6, -16
 1110              		.cfi_offset 7, -12
 1111              		.cfi_offset 8, -8
 1112              		.cfi_offset 14, -4
 1113 0004 2DED068B 		vpush.64	{d8, d9, d10}
 1114              	.LCFI26:
 1115              		.cfi_def_cfa_offset 48
 1116              		.cfi_offset 80, -48
 1117              		.cfi_offset 81, -44
 1118              		.cfi_offset 82, -40
 1119              		.cfi_offset 83, -36
 1120              		.cfi_offset 84, -32
 1121              		.cfi_offset 85, -28
 1122 0008 0446     		mov	r4, r0
ARM GAS  /tmp/ccWaMcpH.s 			page 27


 246:mpu6050/mpu6050.c ****     mpu_timer = HAL_GetTick();  // Êõ¥Êñ∞ËÆ°Êó∂Âô®
 1123              		.loc 1 246 5 is_stmt 1 view .LVU259
 246:mpu6050/mpu6050.c ****     mpu_timer = HAL_GetTick();  // Êõ¥Êñ∞ËÆ°Êó∂Âô®
 1124              		.loc 1 246 26 is_stmt 0 view .LVU260
 1125 000a FFF7FEFF 		bl	HAL_GetTick
 1126              	.LVL81:
 246:mpu6050/mpu6050.c ****     mpu_timer = HAL_GetTick();  // Êõ¥Êñ∞ËÆ°Êó∂Âô®
 1127              		.loc 1 246 40 discriminator 1 view .LVU261
 1128 000e 6C4D     		ldr	r5, .L46+24
 1129 0010 2B68     		ldr	r3, [r5]
 246:mpu6050/mpu6050.c ****     mpu_timer = HAL_GetTick();  // Êõ¥Êñ∞ËÆ°Êó∂Âô®
 1130              		.loc 1 246 17 discriminator 1 view .LVU262
 1131 0012 C01A     		subs	r0, r0, r3
 1132 0014 FFF7FEFF 		bl	__aeabi_ui2d
 1133              	.LVL82:
 246:mpu6050/mpu6050.c ****     mpu_timer = HAL_GetTick();  // Êõ¥Êñ∞ËÆ°Êó∂Âô®
 1134              		.loc 1 246 12 discriminator 1 view .LVU263
 1135 0018 0022     		movs	r2, #0
 1136 001a 6A4B     		ldr	r3, .L46+28
 1137 001c FFF7FEFF 		bl	__aeabi_ddiv
 1138              	.LVL83:
 1139 0020 41EC180B 		vmov	d8, r0, r1
 1140              	.LVL84:
 247:mpu6050/mpu6050.c **** 	  // ËÆ°ÁÆóÊªöËΩ¨Ëßí roll
 1141              		.loc 1 247 5 is_stmt 1 view .LVU264
 247:mpu6050/mpu6050.c **** 	  // ËÆ°ÁÆóÊªöËΩ¨Ëßí roll
 1142              		.loc 1 247 17 is_stmt 0 view .LVU265
 1143 0024 FFF7FEFF 		bl	HAL_GetTick
 1144              	.LVL85:
 247:mpu6050/mpu6050.c **** 	  // ËÆ°ÁÆóÊªöËΩ¨Ëßí roll
 1145              		.loc 1 247 15 discriminator 1 view .LVU266
 1146 0028 2860     		str	r0, [r5]
 249:mpu6050/mpu6050.c ****     double roll_sqrt = sqrt(DataStruct->Accel_X_RAW * DataStruct->Accel_X_RAW + DataStruct->Accel_Z
 1147              		.loc 1 249 5 is_stmt 1 view .LVU267
 250:mpu6050/mpu6050.c ****     if (roll_sqrt != 0.0)
 1148              		.loc 1 250 5 view .LVU268
 250:mpu6050/mpu6050.c ****     if (roll_sqrt != 0.0)
 1149              		.loc 1 250 39 is_stmt 0 view .LVU269
 1150 002a B4F90050 		ldrsh	r5, [r4]
 250:mpu6050/mpu6050.c ****     if (roll_sqrt != 0.0)
 1151              		.loc 1 250 91 view .LVU270
 1152 002e B4F90480 		ldrsh	r8, [r4, #4]
 250:mpu6050/mpu6050.c ****     if (roll_sqrt != 0.0)
 1153              		.loc 1 250 105 view .LVU271
 1154 0032 08FB08F0 		mul	r0, r8, r8
 250:mpu6050/mpu6050.c ****     if (roll_sqrt != 0.0)
 1155              		.loc 1 250 24 view .LVU272
 1156 0036 05FB0500 		mla	r0, r5, r5, r0
 1157 003a FFF7FEFF 		bl	__aeabi_i2d
 1158              	.LVL86:
 1159 003e 41EC100B 		vmov	d0, r0, r1
 1160 0042 FFF7FEFF 		bl	sqrt
 1161              	.LVL87:
 1162 0046 57EC106B 		vmov	r6, r7, d0
 1163              	.LVL88:
 251:mpu6050/mpu6050.c ****     {
 1164              		.loc 1 251 5 is_stmt 1 view .LVU273
ARM GAS  /tmp/ccWaMcpH.s 			page 28


 251:mpu6050/mpu6050.c ****     {
 1165              		.loc 1 251 8 is_stmt 0 view .LVU274
 1166 004a 0022     		movs	r2, #0
 1167 004c 0023     		movs	r3, #0
 1168 004e 3046     		mov	r0, r6
 1169 0050 3946     		mov	r1, r7
 1170 0052 FFF7FEFF 		bl	__aeabi_dcmpeq
 1171              	.LVL89:
 1172 0056 0028     		cmp	r0, #0
 1173 0058 40F09480 		bne	.L44
 253:mpu6050/mpu6050.c ****     }
 1174              		.loc 1 253 9 is_stmt 1 view .LVU275
 253:mpu6050/mpu6050.c ****     }
 1175              		.loc 1 253 16 is_stmt 0 view .LVU276
 1176 005c B4F90200 		ldrsh	r0, [r4, #2]
 1177 0060 FFF7FEFF 		bl	__aeabi_i2d
 1178              	.LVL90:
 1179 0064 3246     		mov	r2, r6
 1180 0066 3B46     		mov	r3, r7
 1181 0068 FFF7FEFF 		bl	__aeabi_ddiv
 1182              	.LVL91:
 1183 006c 41EC100B 		vmov	d0, r0, r1
 1184 0070 FFF7FEFF 		bl	atan
 1185              	.LVL92:
 1186 0074 51EC100B 		vmov	r0, r1, d0
 253:mpu6050/mpu6050.c ****     }
 1187              		.loc 1 253 14 discriminator 1 view .LVU277
 1188 0078 4BA3     		adr	r3, .L46
 1189 007a D3E90023 		ldrd	r2, [r3]
 1190 007e FFF7FEFF 		bl	__aeabi_dmul
 1191              	.LVL93:
 1192 0082 41EC1A0B 		vmov	d10, r0, r1
 1193              	.LVL94:
 1194              	.L27:
 261:mpu6050/mpu6050.c **** 
 1195              		.loc 1 261 5 is_stmt 1 view .LVU278
 261:mpu6050/mpu6050.c **** 
 1196              		.loc 1 261 26 is_stmt 0 view .LVU279
 1197 0086 6D42     		rsbs	r5, r5, #0
 261:mpu6050/mpu6050.c **** 
 1198              		.loc 1 261 20 view .LVU280
 1199 0088 4046     		mov	r0, r8
 1200 008a FFF7FEFF 		bl	__aeabi_i2d
 1201              	.LVL95:
 1202 008e 41EC190B 		vmov	d9, r0, r1
 1203 0092 2846     		mov	r0, r5
 1204 0094 FFF7FEFF 		bl	__aeabi_i2d
 1205              	.LVL96:
 1206 0098 B0EE491A 		vmov.f32	s2, s18
 1207 009c F0EE691A 		vmov.f32	s3, s19
 1208 00a0 41EC100B 		vmov	d0, r0, r1
 1209 00a4 FFF7FEFF 		bl	atan2
 1210              	.LVL97:
 1211 00a8 51EC100B 		vmov	r0, r1, d0
 261:mpu6050/mpu6050.c **** 
 1212              		.loc 1 261 12 discriminator 1 view .LVU281
 1213 00ac 3EA3     		adr	r3, .L46
ARM GAS  /tmp/ccWaMcpH.s 			page 29


 1214 00ae D3E90023 		ldrd	r2, [r3]
 1215 00b2 FFF7FEFF 		bl	__aeabi_dmul
 1216              	.LVL98:
 1217 00b6 0646     		mov	r6, r0
 1218              	.LVL99:
 261:mpu6050/mpu6050.c **** 
 1219              		.loc 1 261 12 discriminator 1 view .LVU282
 1220 00b8 0F46     		mov	r7, r1
 1221              	.LVL100:
 264:mpu6050/mpu6050.c ****     {
 1222              		.loc 1 264 5 is_stmt 1 view .LVU283
 264:mpu6050/mpu6050.c ****     {
 1223              		.loc 1 264 8 is_stmt 0 view .LVU284
 1224 00ba 0022     		movs	r2, #0
 1225 00bc 424B     		ldr	r3, .L46+32
 1226 00be FFF7FEFF 		bl	__aeabi_dcmplt
 1227              	.LVL101:
 1228 00c2 30B1     		cbz	r0, .L29
 264:mpu6050/mpu6050.c ****     {
 1229              		.loc 1 264 22 discriminator 1 view .LVU285
 1230 00c4 0022     		movs	r2, #0
 1231 00c6 414B     		ldr	r3, .L46+36
 1232 00c8 D4E91801 		ldrd	r0, [r4, #96]
 1233 00cc FFF7FEFF 		bl	__aeabi_dcmpgt
 1234              	.LVL102:
 1235 00d0 78B9     		cbnz	r0, .L31
 1236              	.L29:
 264:mpu6050/mpu6050.c ****     {
 1237              		.loc 1 264 56 discriminator 3 view .LVU286
 1238 00d2 0022     		movs	r2, #0
 1239 00d4 3D4B     		ldr	r3, .L46+36
 1240 00d6 3046     		mov	r0, r6
 1241 00d8 3946     		mov	r1, r7
 1242 00da FFF7FEFF 		bl	__aeabi_dcmpgt
 1243              	.LVL103:
 1244 00de 0028     		cmp	r0, #0
 1245 00e0 53D0     		beq	.L32
 264:mpu6050/mpu6050.c ****     {
 1246              		.loc 1 264 71 discriminator 4 view .LVU287
 1247 00e2 0022     		movs	r2, #0
 1248 00e4 384B     		ldr	r3, .L46+32
 1249 00e6 D4E91801 		ldrd	r0, [r4, #96]
 1250 00ea FFF7FEFF 		bl	__aeabi_dcmplt
 1251              	.LVL104:
 1252 00ee 0028     		cmp	r0, #0
 1253 00f0 4BD0     		beq	.L32
 1254              	.L31:
 266:mpu6050/mpu6050.c ****         DataStruct->KalmanAngleY = pitch;
 1255              		.loc 1 266 9 is_stmt 1 view .LVU288
 266:mpu6050/mpu6050.c ****         DataStruct->KalmanAngleY = pitch;
 1256              		.loc 1 266 23 is_stmt 0 view .LVU289
 1257 00f2 374B     		ldr	r3, .L46+40
 1258 00f4 C3E90667 		strd	r6, [r3, #24]
 267:mpu6050/mpu6050.c ****     }
 1259              		.loc 1 267 9 is_stmt 1 view .LVU290
 267:mpu6050/mpu6050.c ****     }
 1260              		.loc 1 267 34 is_stmt 0 view .LVU291
ARM GAS  /tmp/ccWaMcpH.s 			page 30


 1261 00f8 C4E91867 		strd	r6, [r4, #96]
 1262              	.L35:
 276:mpu6050/mpu6050.c ****         DataStruct->Gx = -DataStruct->Gx;
 1263              		.loc 1 276 5 is_stmt 1 view .LVU292
 276:mpu6050/mpu6050.c ****         DataStruct->Gx = -DataStruct->Gx;
 1264              		.loc 1 276 24 is_stmt 0 view .LVU293
 1265 00fc D4E91823 		ldrd	r2, [r4, #96]
 276:mpu6050/mpu6050.c ****         DataStruct->Gx = -DataStruct->Gx;
 1266              		.loc 1 276 9 view .LVU294
 1267 0100 1046     		mov	r0, r2
 1268 0102 23F00041 		bic	r1, r3, #-2147483648
 276:mpu6050/mpu6050.c ****         DataStruct->Gx = -DataStruct->Gx;
 1269              		.loc 1 276 8 view .LVU295
 1270 0106 0022     		movs	r2, #0
 1271 0108 304B     		ldr	r3, .L46+36
 1272 010a FFF7FEFF 		bl	__aeabi_dcmpgt
 1273              	.LVL105:
 1274 010e 30B1     		cbz	r0, .L36
 277:mpu6050/mpu6050.c **** 
 1275              		.loc 1 277 9 is_stmt 1 view .LVU296
 277:mpu6050/mpu6050.c **** 
 1276              		.loc 1 277 37 is_stmt 0 view .LVU297
 1277 0110 D4E90E01 		ldrd	r0, [r4, #56]
 277:mpu6050/mpu6050.c **** 
 1278              		.loc 1 277 26 view .LVU298
 1279 0114 0246     		mov	r2, r0
 1280 0116 01F10043 		add	r3, r1, #-2147483648
 277:mpu6050/mpu6050.c **** 
 1281              		.loc 1 277 24 view .LVU299
 1282 011a C4E90E23 		strd	r2, [r4, #56]
 1283              	.L36:
 280:mpu6050/mpu6050.c **** 		
 1284              		.loc 1 280 5 is_stmt 1 view .LVU300
 280:mpu6050/mpu6050.c **** 		
 1285              		.loc 1 280 32 is_stmt 0 view .LVU301
 1286 011e B0EE482A 		vmov.f32	s4, s16
 1287 0122 F0EE682A 		vmov.f32	s5, s17
 1288 0126 94ED0E1B 		vldr.64	d1, [r4, #56]
 1289 012a B0EE4A0A 		vmov.f32	s0, s20
 1290 012e F0EE6A0A 		vmov.f32	s1, s21
 1291 0132 2848     		ldr	r0, .L46+44
 1292 0134 FFF7FEFF 		bl	Kalman_getAngle
 1293              	.LVL106:
 280:mpu6050/mpu6050.c **** 		
 1294              		.loc 1 280 30 discriminator 1 view .LVU302
 1295 0138 84ED160B 		vstr.64	d0, [r4, #88]
 285:mpu6050/mpu6050.c **** 		{
 1296              		.loc 1 285 3 is_stmt 1 view .LVU303
 1297              	.LBB2:
 285:mpu6050/mpu6050.c **** 		{
 1298              		.loc 1 285 6 is_stmt 0 view .LVU304
 1299 013c 94ED120B 		vldr.64	d0, [r4, #72]
 1300 0140 FFF7FEFF 		bl	abs_int16
 1301              	.LVL107:
 285:mpu6050/mpu6050.c **** 		{
 1302              		.loc 1 285 5 discriminator 1 view .LVU305
 1303 0144 0028     		cmp	r0, #0
ARM GAS  /tmp/ccWaMcpH.s 			page 31


 1304 0146 19DD     		ble	.L26
 287:mpu6050/mpu6050.c **** 			MPU6050.Yaw_8192 = MPU6050.Yaw_360*22.7555555556f;
 1305              		.loc 1 287 5 is_stmt 1 view .LVU306
 287:mpu6050/mpu6050.c **** 			MPU6050.Yaw_8192 = MPU6050.Yaw_360*22.7555555556f;
 1306              		.loc 1 287 12 is_stmt 0 view .LVU307
 1307 0148 234D     		ldr	r5, .L46+48
 1308 014a D5E91A67 		ldrd	r6, [r5, #104]
 1309              	.LVL108:
 287:mpu6050/mpu6050.c **** 			MPU6050.Yaw_8192 = MPU6050.Yaw_360*22.7555555556f;
 1310              		.loc 1 287 38 view .LVU308
 1311 014e 0022     		movs	r2, #0
 1312 0150 224B     		ldr	r3, .L46+52
 1313 0152 D4E91201 		ldrd	r0, [r4, #72]
 1314 0156 FFF7FEFF 		bl	__aeabi_ddiv
 1315              	.LVL109:
 1316 015a 0246     		mov	r2, r0
 1317 015c 0B46     		mov	r3, r1
 287:mpu6050/mpu6050.c **** 			MPU6050.Yaw_8192 = MPU6050.Yaw_360*22.7555555556f;
 1318              		.loc 1 287 21 view .LVU309
 1319 015e 3046     		mov	r0, r6
 1320 0160 3946     		mov	r1, r7
 1321 0162 FFF7FEFF 		bl	__aeabi_dsub
 1322              	.LVL110:
 1323 0166 0246     		mov	r2, r0
 1324 0168 0B46     		mov	r3, r1
 1325 016a C5E91A23 		strd	r2, [r5, #104]
 288:mpu6050/mpu6050.c **** 		}
 1326              		.loc 1 288 4 is_stmt 1 view .LVU310
 288:mpu6050/mpu6050.c **** 		}
 1327              		.loc 1 288 38 is_stmt 0 view .LVU311
 1328 016e 10A3     		adr	r3, .L46+8
 1329 0170 D3E90023 		ldrd	r2, [r3]
 1330 0174 FFF7FEFF 		bl	__aeabi_dmul
 1331              	.LVL111:
 288:mpu6050/mpu6050.c **** 		}
 1332              		.loc 1 288 21 view .LVU312
 1333 0178 C5E91C01 		strd	r0, [r5, #112]
 1334              	.L26:
 1335              	.LBE2:
 290:mpu6050/mpu6050.c **** 
 1336              		.loc 1 290 1 view .LVU313
 1337 017c BDEC068B 		vldm	sp!, {d8-d10}
 1338              	.LCFI27:
 1339              		.cfi_remember_state
 1340              		.cfi_restore 84
 1341              		.cfi_restore 85
 1342              		.cfi_restore 82
 1343              		.cfi_restore 83
 1344              		.cfi_restore 80
 1345              		.cfi_restore 81
 1346              		.cfi_def_cfa_offset 24
 1347              	.LVL112:
 290:mpu6050/mpu6050.c **** 
 1348              		.loc 1 290 1 view .LVU314
 1349 0180 BDE8F081 		pop	{r4, r5, r6, r7, r8, pc}
 1350              	.LVL113:
 1351              	.L44:
ARM GAS  /tmp/ccWaMcpH.s 			page 32


 1352              	.LCFI28:
 1353              		.cfi_restore_state
 257:mpu6050/mpu6050.c ****     }
 1354              		.loc 1 257 14 view .LVU315
 1355 0184 9FED0CAB 		vldr.64	d10, .L46+16
 1356 0188 7DE7     		b	.L27
 1357              	.LVL114:
 1358              	.L32:
 272:mpu6050/mpu6050.c ****     }
 1359              		.loc 1 272 9 is_stmt 1 view .LVU316
 272:mpu6050/mpu6050.c ****     }
 1360              		.loc 1 272 36 is_stmt 0 view .LVU317
 1361 018a B0EE482A 		vmov.f32	s4, s16
 1362 018e F0EE682A 		vmov.f32	s5, s17
 1363 0192 94ED101B 		vldr.64	d1, [r4, #64]
 1364 0196 47EC106B 		vmov	d0, r6, r7
 1365 019a 0D48     		ldr	r0, .L46+40
 1366 019c FFF7FEFF 		bl	Kalman_getAngle
 1367              	.LVL115:
 272:mpu6050/mpu6050.c ****     }
 1368              		.loc 1 272 34 discriminator 1 view .LVU318
 1369 01a0 84ED180B 		vstr.64	d0, [r4, #96]
 1370 01a4 AAE7     		b	.L35
 1371              	.L47:
 1372 01a6 00BF     		.align	3
 1373              	.L46:
 1374 01a8 F8C1631A 		.word	442745336
 1375 01ac DCA54C40 		.word	1078765020
 1376 01b0 00000020 		.word	536870912
 1377 01b4 6CC13640 		.word	1077330284
 1378 01b8 00000000 		.word	0
 1379 01bc 00000000 		.word	0
 1380 01c0 00000000 		.word	mpu_timer
 1381 01c4 00408F40 		.word	1083129856
 1382 01c8 008056C0 		.word	-1068072960
 1383 01cc 00805640 		.word	1079410688
 1384 01d0 00000000 		.word	KalmanY
 1385 01d4 00000000 		.word	KalmanX
 1386 01d8 00000000 		.word	MPU6050
 1387 01dc 00005940 		.word	1079574528
 1388              		.cfi_endproc
 1389              	.LFE139:
 1391              		.section	.text.MPU6050_CheckDeviation,"ax",%progbits
 1392              		.align	1
 1393              		.global	MPU6050_CheckDeviation
 1394              		.syntax unified
 1395              		.thumb
 1396              		.thumb_func
 1398              	MPU6050_CheckDeviation:
 1399              	.LVL116:
 1400              	.LFB141:
 351:mpu6050/mpu6050.c **** 
 352:mpu6050/mpu6050.c **** void MPU6050_CheckDeviation(MPU6050_t *DataStruct)
 353:mpu6050/mpu6050.c **** {
 1401              		.loc 1 353 1 is_stmt 1 view -0
 1402              		.cfi_startproc
 1403              		@ args = 0, pretend = 0, frame = 0
ARM GAS  /tmp/ccWaMcpH.s 			page 33


 1404              		@ frame_needed = 0, uses_anonymous_args = 0
 1405              		.loc 1 353 1 is_stmt 0 view .LVU320
 1406 0000 2DE9F041 		push	{r4, r5, r6, r7, r8, lr}
 1407              	.LCFI29:
 1408              		.cfi_def_cfa_offset 24
 1409              		.cfi_offset 4, -24
 1410              		.cfi_offset 5, -20
 1411              		.cfi_offset 6, -16
 1412              		.cfi_offset 7, -12
 1413              		.cfi_offset 8, -8
 1414              		.cfi_offset 14, -4
 1415 0004 0446     		mov	r4, r0
 354:mpu6050/mpu6050.c ****   int tick = 0;
 1416              		.loc 1 354 3 is_stmt 1 view .LVU321
 1417              	.LVL117:
 355:mpu6050/mpu6050.c **** 	int16_t Gyro_X_sum = 0;
 1418              		.loc 1 355 2 view .LVU322
 356:mpu6050/mpu6050.c **** 	int16_t Gyro_Y_sum = 0;
 1419              		.loc 1 356 2 view .LVU323
 357:mpu6050/mpu6050.c **** 	int16_t Gyro_Z_sum = 0;
 1420              		.loc 1 357 2 view .LVU324
 358:mpu6050/mpu6050.c **** 	
 359:mpu6050/mpu6050.c **** 	while(tick<1000)
 1421              		.loc 1 359 2 view .LVU325
 357:mpu6050/mpu6050.c **** 	int16_t Gyro_Z_sum = 0;
 1422              		.loc 1 357 10 is_stmt 0 view .LVU326
 1423 0006 0026     		movs	r6, #0
 356:mpu6050/mpu6050.c **** 	int16_t Gyro_Z_sum = 0;
 1424              		.loc 1 356 10 view .LVU327
 1425 0008 B046     		mov	r8, r6
 355:mpu6050/mpu6050.c **** 	int16_t Gyro_Y_sum = 0;
 1426              		.loc 1 355 10 view .LVU328
 1427 000a 3746     		mov	r7, r6
 354:mpu6050/mpu6050.c **** 	int16_t Gyro_X_sum = 0;
 1428              		.loc 1 354 7 view .LVU329
 1429 000c 3546     		mov	r5, r6
 1430              		.loc 1 359 7 view .LVU330
 1431 000e 11E0     		b	.L49
 1432              	.LVL118:
 1433              	.L50:
 360:mpu6050/mpu6050.c **** 	{
 361:mpu6050/mpu6050.c **** 		MPU6050_Read_All(&hi2c2, &MPU6050);
 1434              		.loc 1 361 3 is_stmt 1 view .LVU331
 1435 0010 1E49     		ldr	r1, .L52
 1436 0012 1F48     		ldr	r0, .L52+4
 1437 0014 FFF7FEFF 		bl	MPU6050_Read_All
 1438              	.LVL119:
 362:mpu6050/mpu6050.c **** 		Gyro_X_sum += DataStruct->Gyro_X_RAW;
 1439              		.loc 1 362 3 view .LVU332
 1440              		.loc 1 362 27 is_stmt 0 view .LVU333
 1441 0018 238C     		ldrh	r3, [r4, #32]
 1442              		.loc 1 362 14 view .LVU334
 1443 001a 3B44     		add	r3, r3, r7
 1444 001c 1FB2     		sxth	r7, r3
 1445              	.LVL120:
 363:mpu6050/mpu6050.c **** 		Gyro_Y_sum += DataStruct->Gyro_Y_RAW;
 1446              		.loc 1 363 3 is_stmt 1 view .LVU335
ARM GAS  /tmp/ccWaMcpH.s 			page 34


 1447              		.loc 1 363 27 is_stmt 0 view .LVU336
 1448 001e 638C     		ldrh	r3, [r4, #34]
 1449              		.loc 1 363 14 view .LVU337
 1450 0020 4344     		add	r3, r3, r8
 1451 0022 0FFA83F8 		sxth	r8, r3
 1452              	.LVL121:
 364:mpu6050/mpu6050.c **** 		Gyro_Z_sum += DataStruct->Gyro_Z_RAW;
 1453              		.loc 1 364 3 is_stmt 1 view .LVU338
 1454              		.loc 1 364 27 is_stmt 0 view .LVU339
 1455 0026 A38C     		ldrh	r3, [r4, #36]
 1456              		.loc 1 364 14 view .LVU340
 1457 0028 3344     		add	r3, r3, r6
 1458 002a 1EB2     		sxth	r6, r3
 1459              	.LVL122:
 365:mpu6050/mpu6050.c **** 		tick++;
 1460              		.loc 1 365 3 is_stmt 1 view .LVU341
 1461              		.loc 1 365 7 is_stmt 0 view .LVU342
 1462 002c 0135     		adds	r5, r5, #1
 1463              	.LVL123:
 366:mpu6050/mpu6050.c **** 	  HAL_Delay(10);
 1464              		.loc 1 366 4 is_stmt 1 view .LVU343
 1465 002e 0A20     		movs	r0, #10
 1466 0030 FFF7FEFF 		bl	HAL_Delay
 1467              	.LVL124:
 1468              	.L49:
 359:mpu6050/mpu6050.c **** 	{
 1469              		.loc 1 359 12 view .LVU344
 1470 0034 B5F57A7F 		cmp	r5, #1000
 1471 0038 EADB     		blt	.L50
 367:mpu6050/mpu6050.c **** 	}
 368:mpu6050/mpu6050.c **** 	DataStruct->Gyro_X_RAW_Dev = Gyro_X_sum/1000.0f;
 1472              		.loc 1 368 2 view .LVU345
 1473              		.loc 1 368 41 is_stmt 0 view .LVU346
 1474 003a 07EE907A 		vmov	s15, r7	@ int
 1475 003e F8EEE77A 		vcvt.f32.s32	s15, s15
 1476 0042 DFED146A 		vldr.32	s13, .L52+8
 1477 0046 87EEA67A 		vdiv.f32	s14, s15, s13
 1478              		.loc 1 368 29 view .LVU347
 1479 004a BDEEC77A 		vcvt.s32.f32	s14, s14
 1480 004e 17EE103A 		vmov	r3, s14	@ int
 1481 0052 A385     		strh	r3, [r4, #44]	@ movhi
 369:mpu6050/mpu6050.c **** 	DataStruct->Gyro_Y_RAW_Dev = Gyro_Y_sum/1000.0f;
 1482              		.loc 1 369 2 is_stmt 1 view .LVU348
 1483              		.loc 1 369 41 is_stmt 0 view .LVU349
 1484 0054 07EE908A 		vmov	s15, r8	@ int
 1485 0058 F8EEE77A 		vcvt.f32.s32	s15, s15
 1486 005c 87EEA67A 		vdiv.f32	s14, s15, s13
 1487              		.loc 1 369 29 view .LVU350
 1488 0060 BDEEC77A 		vcvt.s32.f32	s14, s14
 1489 0064 17EE103A 		vmov	r3, s14	@ int
 1490 0068 E385     		strh	r3, [r4, #46]	@ movhi
 370:mpu6050/mpu6050.c **** 	DataStruct->Gyro_Z_RAW_Dev = Gyro_Z_sum/1000.0f;
 1491              		.loc 1 370 2 is_stmt 1 view .LVU351
 1492              		.loc 1 370 41 is_stmt 0 view .LVU352
 1493 006a 07EE906A 		vmov	s15, r6	@ int
 1494 006e F8EEE77A 		vcvt.f32.s32	s15, s15
 1495 0072 87EEA67A 		vdiv.f32	s14, s15, s13
ARM GAS  /tmp/ccWaMcpH.s 			page 35


 1496              		.loc 1 370 29 view .LVU353
 1497 0076 BDEEC77A 		vcvt.s32.f32	s14, s14
 1498 007a 17EE103A 		vmov	r3, s14	@ int
 1499 007e 2386     		strh	r3, [r4, #48]	@ movhi
 371:mpu6050/mpu6050.c **** 	DataStruct->Devivation_Check_Flag = 1;
 1500              		.loc 1 371 2 is_stmt 1 view .LVU354
 1501              		.loc 1 371 36 is_stmt 0 view .LVU355
 1502 0080 0123     		movs	r3, #1
 1503 0082 84F83230 		strb	r3, [r4, #50]
 372:mpu6050/mpu6050.c **** }
 1504              		.loc 1 372 1 view .LVU356
 1505 0086 BDE8F081 		pop	{r4, r5, r6, r7, r8, pc}
 1506              	.LVL125:
 1507              	.L53:
 1508              		.loc 1 372 1 view .LVU357
 1509 008a 00BF     		.align	2
 1510              	.L52:
 1511 008c 00000000 		.word	MPU6050
 1512 0090 00000000 		.word	hi2c2
 1513 0094 00007A44 		.word	1148846080
 1514              		.cfi_endproc
 1515              	.LFE141:
 1517              		.section	.text.MPU6050_Process,"ax",%progbits
 1518              		.align	1
 1519              		.global	MPU6050_Process
 1520              		.syntax unified
 1521              		.thumb
 1522              		.thumb_func
 1524              	MPU6050_Process:
 1525              	.LFB142:
 373:mpu6050/mpu6050.c **** 
 374:mpu6050/mpu6050.c **** void MPU6050_Process()
 375:mpu6050/mpu6050.c **** {
 1526              		.loc 1 375 1 is_stmt 1 view -0
 1527              		.cfi_startproc
 1528              		@ args = 0, pretend = 0, frame = 0
 1529              		@ frame_needed = 0, uses_anonymous_args = 0
 1530 0000 08B5     		push	{r3, lr}
 1531              	.LCFI30:
 1532              		.cfi_def_cfa_offset 8
 1533              		.cfi_offset 3, -8
 1534              		.cfi_offset 14, -4
 376:mpu6050/mpu6050.c ****     MPU6050_Read_All(&hi2c2, &MPU6050);
 1535              		.loc 1 376 5 view .LVU359
 1536 0002 0249     		ldr	r1, .L56
 1537 0004 0248     		ldr	r0, .L56+4
 1538 0006 FFF7FEFF 		bl	MPU6050_Read_All
 1539              	.LVL126:
 377:mpu6050/mpu6050.c ****     //MPU6050_GetAngle(&MPU6050);
 378:mpu6050/mpu6050.c **** }...
 1540              		.loc 1 378 1 is_stmt 0 view .LVU360
 1541 000a 08BD     		pop	{r3, pc}
 1542              	.L57:
 1543              		.align	2
 1544              	.L56:
 1545 000c 00000000 		.word	MPU6050
 1546 0010 00000000 		.word	hi2c2
ARM GAS  /tmp/ccWaMcpH.s 			page 36


 1547              		.cfi_endproc
 1548              	.LFE142:
 1550              		.global	test
 1551              		.section	.bss.test,"aw",%nobits
 1554              	test:
 1555 0000 00       		.space	1
 1556              		.global	check
 1557              		.section	.bss.check,"aw",%nobits
 1560              	check:
 1561 0000 00       		.space	1
 1562              		.global	KalmanY
 1563              		.section	.data.KalmanY,"aw"
 1564              		.align	3
 1567              	KalmanY:
 1568 0000 000000E0 		.word	-536870912
 1569 0004 4D62503F 		.word	1062232653
 1570 0008 000000C0 		.word	-1073741824
 1571 000c 7493683F 		.word	1063818100
 1572 0010 000000E0 		.word	-536870912
 1573 0014 51B89E3F 		.word	1067366481
 1574 0018 00000000 		.space	48
 1574      00000000 
 1574      00000000 
 1574      00000000 
 1574      00000000 
 1575              		.global	KalmanX
 1576              		.section	.data.KalmanX,"aw"
 1577              		.align	3
 1580              	KalmanX:
 1581 0000 000000E0 		.word	-536870912
 1582 0004 4D62503F 		.word	1062232653
 1583 0008 000000C0 		.word	-1073741824
 1584 000c 7493683F 		.word	1063818100
 1585 0010 000000E0 		.word	-536870912
 1586 0014 51B89E3F 		.word	1067366481
 1587 0018 00000000 		.space	48
 1587      00000000 
 1587      00000000 
 1587      00000000 
 1587      00000000 
 1588              		.global	MPU6050
 1589              		.section	.bss.MPU6050,"aw",%nobits
 1590              		.align	3
 1593              	MPU6050:
 1594 0000 00000000 		.space	144
 1594      00000000 
 1594      00000000 
 1594      00000000 
 1594      00000000 
 1595              		.global	mpu_timer
 1596              		.section	.bss.mpu_timer,"aw",%nobits
 1597              		.align	2
 1600              	mpu_timer:
 1601 0000 00000000 		.space	4
 1602              		.global	Accel_Z_corrector
 1603              		.section	.rodata.Accel_Z_corrector,"a"
 1604              		.align	3
ARM GAS  /tmp/ccWaMcpH.s 			page 37


 1607              	Accel_Z_corrector:
 1608 0000 00000000 		.word	0
 1609 0004 0029CC40 		.word	1087121664
 1610              		.global	i2c_timeout
 1611              		.section	.rodata.i2c_timeout,"a"
 1612              		.align	1
 1615              	i2c_timeout:
 1616 0000 6400     		.short	100
 1617              		.text
 1618              	.Letext0:
 1619              		.file 2 "/usr/lib/gcc/arm-none-eabi/13.2.1/include/stdint.h"
 1620              		.file 3 "Drivers/CMSIS/Device/ST/STM32F4xx/Include/stm32f407xx.h"
 1621              		.file 4 "Drivers/STM32F4xx_HAL_Driver/Inc/stm32f4xx_hal_def.h"
 1622              		.file 5 "Drivers/STM32F4xx_HAL_Driver/Inc/stm32f4xx_hal_dma.h"
 1623              		.file 6 "Drivers/STM32F4xx_HAL_Driver/Inc/stm32f4xx_hal_i2c.h"
 1624              		.file 7 "mpu6050/mpu6050.h"
 1625              		.file 8 "Core/Inc/i2c.h"
 1626              		.file 9 "/usr/include/newlib/math.h"
 1627              		.file 10 "Drivers/STM32F4xx_HAL_Driver/Inc/stm32f4xx_hal.h"
ARM GAS  /tmp/ccWaMcpH.s 			page 38

